ARM GAS  C:\msys64\tmp\ccZRcnL7.s 			page 1


   1              		.syntax unified
   2              		.cpu cortex-m4
   3              		.eabi_attribute 27, 1
   4              		.eabi_attribute 28, 1
   5              		.fpu fpv4-sp-d16
   6              		.eabi_attribute 20, 1
   7              		.eabi_attribute 21, 1
   8              		.eabi_attribute 23, 3
   9              		.eabi_attribute 24, 1
  10              		.eabi_attribute 25, 1
  11              		.eabi_attribute 26, 1
  12              		.eabi_attribute 30, 4
  13              		.eabi_attribute 34, 1
  14              		.eabi_attribute 18, 4
  15              		.thumb
  16              		.syntax unified
  17              		.file	"ubersaw.cpp"
  18              		.text
  19              	.Ltext0:
  20              		.cfi_sections	.debug_frame
  21              		.section	.text._ZN7UberSaw4initEv,"axG",%progbits,_ZN7UberSaw4initEv,comdat
  22              		.align	1
  23              		.weak	_ZN7UberSaw4initEv
  24              		.thumb
  25              		.thumb_func
  26              		.type	_ZN7UberSaw4initEv, %function
  27              	_ZN7UberSaw4initEv:
  28              	.LFB248:
  29              		.file 1 "ubersaw.hpp"
  30              		.loc 1 75 0
  31              		.cfi_startproc
  32              		@ args = 0, pretend = 0, frame = 88
  33              		@ frame_needed = 0, uses_anonymous_args = 0
  34              	.LVL0:
  35 0000 10B5     		push	{r4, lr}
  36              		.cfi_def_cfa_offset 8
  37              		.cfi_offset 4, -8
  38              		.cfi_offset 14, -4
  39 0002 0346     		mov	r3, r0
  40 0004 96B0     		sub	sp, sp, #88
  41              		.cfi_def_cfa_offset 96
  42              	.LVL1:
  43              	.LBB173:
  44              	.LBB174:
  45              		.loc 1 66 0
  46 0006 1148     		ldr	r0, .L5
  47              	.LVL2:
  48 0008 0AAA     		add	r2, sp, #40
  49 000a 11A9     		add	r1, sp, #68
  50              	.LVL3:
  51              	.L2:
  52 000c 42F8040B 		str	r0, [r2], #4	@ float
  53              		.loc 1 65 0
  54 0010 9142     		cmp	r1, r2
  55 0012 FBD1     		bne	.L2
  56              	.LVL4:
  57              	.LBE174:
ARM GAS  C:\msys64\tmp\ccZRcnL7.s 			page 2


  58              	.LBE173:
  59              		.loc 1 76 0
  60 0014 0E4A     		ldr	r2, .L5+4
  61 0016 1192     		str	r2, [sp, #68]	@ float
  62 0018 0E4A     		ldr	r2, .L5+8
  63 001a 1292     		str	r2, [sp, #72]	@ float
  64 001c 9DF85420 		ldrb	r2, [sp, #84]	@ zero_extendqisi2
  65 0020 6FF30102 		bfc	r2, #0, #2
  66 0024 0024     		movs	r4, #0
  67 0026 8DF85420 		strb	r2, [sp, #84]
  68 002a 01A9     		add	r1, sp, #4
  69 002c 5122     		movs	r2, #81
  70 002e 1846     		mov	r0, r3
  71 0030 1394     		str	r4, [sp, #76]	@ float
  72 0032 1494     		str	r4, [sp, #80]	@ float
  73 0034 FFF7FEFF 		bl	memcpy
  74              	.LVL5:
  75              		.loc 1 77 0
  76 0038 4465     		str	r4, [r0, #84]	@ float
  77 003a 8465     		str	r4, [r0, #88]	@ float
  78 003c C465     		str	r4, [r0, #92]	@ float
  79 003e 0466     		str	r4, [r0, #96]	@ float
  80 0040 4466     		str	r4, [r0, #100]	@ float
  81 0042 8466     		str	r4, [r0, #104]	@ float
  82 0044 C466     		str	r4, [r0, #108]	@ float
  83              		.loc 1 78 0
  84 0046 16B0     		add	sp, sp, #88
  85              		.cfi_def_cfa_offset 8
  86              		@ sp needed
  87 0048 10BD     		pop	{r4, pc}
  88              	.L6:
  89 004a 00BF     		.align	2
  90              	.L5:
  91 004c C92F163C 		.word	1008086985
  92 0050 C92F963C 		.word	1016475593
  93 0054 C92F963B 		.word	999698377
  94              		.cfi_endproc
  95              	.LFE248:
  96              		.size	_ZN7UberSaw4initEv, .-_ZN7UberSaw4initEv
  97              		.section	.text._ZN7UberSaw12updateDetuneEv,"axG",%progbits,_ZN7UberSaw12updateDetuneEv,comdat
  98              		.align	1
  99              		.weak	_ZN7UberSaw12updateDetuneEv
 100              		.thumb
 101              		.thumb_func
 102              		.type	_ZN7UberSaw12updateDetuneEv, %function
 103              	_ZN7UberSaw12updateDetuneEv:
 104              	.LFB250:
 105              		.loc 1 115 0
 106              		.cfi_startproc
 107              		@ args = 0, pretend = 0, frame = 0
 108              		@ frame_needed = 0, uses_anonymous_args = 0
 109              		@ link register save eliminated.
 110              	.LVL6:
 111              		.loc 1 117 0
 112 0000 90ED197A 		vldr.32	s14, [r0, #100]
 113              	.LVL7:
 114              	.LBB175:
ARM GAS  C:\msys64\tmp\ccZRcnL7.s 			page 3


 115              		.loc 1 130 0
 116 0004 0023     		movs	r3, #0
 117              	.LBE175:
 118              		.loc 1 122 0
 119 0006 F0EE476A 		vmov.f32	s13, s14
 120 000a B0EE476A 		vmov.f32	s12, s14
 121 000e F0EE475A 		vmov.f32	s11, s14
 122 0012 B0EE475A 		vmov.f32	s10, s14
 123 0016 F0EE474A 		vmov.f32	s9, s14
 124 001a B0EE474A 		vmov.f32	s8, s14
 125 001e F0EE473A 		vmov.f32	s7, s14
 126 0022 B0EE473A 		vmov.f32	s6, s14
 127 0026 B0EE472A 		vmov.f32	s4, s14
 128 002a F0EE472A 		vmov.f32	s5, s14
 129              	.LVL8:
 130              	.L16:
 131              	.LBB176:
 132              		.loc 1 131 0
 133 002e 62EE872A 		vmul.f32	s5, s5, s14
 134              	.LVL9:
 135              		.loc 1 132 0
 136 0032 0BB3     		cbz	r3, .L15
 137              		.loc 1 135 0
 138 0034 012B     		cmp	r3, #1
 139              		.loc 1 133 0
 140 0036 22EE072A 		vmul.f32	s4, s4, s14
 141              	.LVL10:
 142              		.loc 1 135 0
 143 003a 1DD0     		beq	.L15
 144              		.loc 1 138 0
 145 003c 022B     		cmp	r3, #2
 146              		.loc 1 136 0
 147 003e 23EE073A 		vmul.f32	s6, s6, s14
 148              	.LVL11:
 149              		.loc 1 138 0
 150 0042 19D0     		beq	.L15
 151              		.loc 1 141 0
 152 0044 032B     		cmp	r3, #3
 153              		.loc 1 139 0
 154 0046 63EE873A 		vmul.f32	s7, s7, s14
 155              	.LVL12:
 156              		.loc 1 141 0
 157 004a 15D0     		beq	.L15
 158              		.loc 1 144 0
 159 004c 042B     		cmp	r3, #4
 160              		.loc 1 142 0
 161 004e 24EE074A 		vmul.f32	s8, s8, s14
 162              	.LVL13:
 163              		.loc 1 144 0
 164 0052 11D0     		beq	.L15
 165              		.loc 1 147 0
 166 0054 052B     		cmp	r3, #5
 167              		.loc 1 145 0
 168 0056 64EE874A 		vmul.f32	s9, s9, s14
 169              	.LVL14:
 170              		.loc 1 147 0
 171 005a 0DD0     		beq	.L15
ARM GAS  C:\msys64\tmp\ccZRcnL7.s 			page 4


 172              		.loc 1 150 0
 173 005c 062B     		cmp	r3, #6
 174              		.loc 1 148 0
 175 005e 25EE075A 		vmul.f32	s10, s10, s14
 176              	.LVL15:
 177              		.loc 1 150 0
 178 0062 09D0     		beq	.L15
 179              		.loc 1 153 0
 180 0064 072B     		cmp	r3, #7
 181              		.loc 1 151 0
 182 0066 65EE875A 		vmul.f32	s11, s11, s14
 183              	.LVL16:
 184              		.loc 1 153 0
 185 006a 05D0     		beq	.L15
 186              		.loc 1 156 0
 187 006c 092B     		cmp	r3, #9
 188              		.loc 1 154 0
 189 006e 26EE076A 		vmul.f32	s12, s12, s14
 190              	.LVL17:
 191              		.loc 1 157 0
 192 0072 08BF     		it	eq
 193 0074 66EE876A 		vmuleq.f32	s13, s13, s14
 194              	.LVL18:
 195              	.L15:
 196              		.loc 1 130 0 discriminator 2
 197 0078 0133     		adds	r3, r3, #1
 198              	.LVL19:
 199 007a 0A2B     		cmp	r3, #10
 200 007c D7D1     		bne	.L16
 201              	.LVL20:
 202              	.LBE176:
 203              		.loc 1 174 0
 204 007e DFED227A 		vldr.32	s15, .L48
 205 0082 67EEC27A 		vnmul.f32	s15, s15, s4
 206 0086 9FED212A 		vldr.32	s4, .L48+4
 207              	.LVL21:
 208 008a E2EE827A 		vfma.f32	s15, s5, s4
 209 008e DFED202A 		vldr.32	s5, .L48+8
 210              	.LVL22:
 211 0092 E3EE227A 		vfma.f32	s15, s6, s5
 212 0096 9FED1F3A 		vldr.32	s6, .L48+12
 213              	.LVL23:
 214 009a E3EEC37A 		vfms.f32	s15, s7, s6
 215 009e DFED1E3A 		vldr.32	s7, .L48+16
 216              	.LVL24:
 217 00a2 E4EE237A 		vfma.f32	s15, s8, s7
 218 00a6 9FED1D4A 		vldr.32	s8, .L48+20
 219              	.LVL25:
 220 00aa E4EEC47A 		vfms.f32	s15, s9, s8
 221 00ae DFED1C4A 		vldr.32	s9, .L48+24
 222              	.LVL26:
 223 00b2 E5EE247A 		vfma.f32	s15, s10, s9
 224 00b6 9FED1B5A 		vldr.32	s10, .L48+28
 225              	.LVL27:
 226 00ba E5EEC57A 		vfms.f32	s15, s11, s10
 227 00be DFED1A5A 		vldr.32	s11, .L48+32
 228              	.LVL28:
ARM GAS  C:\msys64\tmp\ccZRcnL7.s 			page 5


 229 00c2 E6EE257A 		vfma.f32	s15, s12, s11
 230 00c6 9FED196A 		vldr.32	s12, .L48+36
 231              	.LVL29:
 232 00ca E6EEC67A 		vfms.f32	s15, s13, s12
 233 00ce DFED186A 		vldr.32	s13, .L48+40
 234              	.LVL30:
 235 00d2 E7EE267A 		vfma.f32	s15, s14, s13
 236 00d6 9FED177A 		vldr.32	s14, .L48+44
 237              	.LVL31:
 238 00da 77EE877A 		vadd.f32	s15, s15, s14
 239              	.LVL32:
 240              	.LBB177:
 241              	.LBB178:
 242              	.LBB179:
 243              	.LBB180:
 244              		.file 2 "C:/msys64/home/logue-sdk/platform/nutekt-digital/inc/utils/float_math.h"
 245              		.loc 2 193 0
 246 00de F5EEC07A 		vcmpe.f32	s15, #0
 247 00e2 F1EE10FA 		vmrs	APSR_nzcv, FPSCR
 248 00e6 09DB     		blt	.L47
 249              	.LVL33:
 250              	.LBE180:
 251              	.LBE179:
 252              	.LBB182:
 253              	.LBB183:
 254 00e8 B7EE007A 		vmov.f32	s14, #1.0e+0
 255              	.LBE183:
 256              	.LBE182:
 257              	.LBB184:
 258              	.LBB181:
 259 00ec F4EEC77A 		vcmpe.f32	s15, s14
 260 00f0 F1EE10FA 		vmrs	APSR_nzcv, FPSCR
 261 00f4 A8BF     		it	ge
 262 00f6 F0EE477A 		vmovge.f32	s15, s14
 263              	.LVL34:
 264 00fa 01E0     		b	.L17
 265              	.LVL35:
 266              	.L47:
 267 00fc DFED0E7A 		vldr.32	s15, .L48+48
 268              	.LVL36:
 269              	.L17:
 270              	.LBE181:
 271              	.LBE184:
 272              	.LBE178:
 273              	.LBE177:
 274              		.loc 1 177 0
 275 0100 C0ED187A 		vstr.32	s15, [r0, #96]
 276 0104 7047     		bx	lr
 277              	.L49:
 278 0106 00BF     		.align	2
 279              	.L48:
 280 0108 DD824647 		.word	1195803357
 281 010c EDB21C46 		.word	1176285933
 282 0110 BE81D947 		.word	1205436862
 283 0114 ABE90648 		.word	1208412587
 284 0118 D54CD047 		.word	1204833493
 285 011c F7364F47 		.word	1196373751
ARM GAS  C:\msys64\tmp\ccZRcnL7.s 			page 6


 286 0120 E7F78446 		.word	1183119335
 287 0124 57115645 		.word	1163268439
 288 0128 9C22CA43 		.word	1137320604
 289 012c C980C141 		.word	1103200457
 290 0130 45F72B3F 		.word	1059845957
 291 0134 965D453B 		.word	994401686
 292 0138 00000000 		.word	0
 293              		.cfi_endproc
 294              	.LFE250:
 295              		.size	_ZN7UberSaw12updateDetuneEv, .-_ZN7UberSaw12updateDetuneEv
 296              		.text
 297              		.align	1
 298              		.global	_hook_init
 299              		.thumb
 300              		.thumb_func
 301              		.type	_hook_init, %function
 302              	_hook_init:
 303              	.LFB251:
 304              		.file 3 "ubersaw.cpp"
 305              		.loc 3 18 0
 306              		.cfi_startproc
 307              		@ args = 0, pretend = 0, frame = 0
 308              		@ frame_needed = 0, uses_anonymous_args = 0
 309              		@ link register save eliminated.
 310              	.LVL37:
 311 0000 7047     		bx	lr
 312              		.cfi_endproc
 313              	.LFE251:
 314              		.size	_hook_init, .-_hook_init
 315              		.align	1
 316              		.global	_hook_cycle
 317              		.thumb
 318              		.thumb_func
 319              		.type	_hook_cycle, %function
 320              	_hook_cycle:
 321              	.LFB252:
 322              		.loc 3 23 0
 323              		.cfi_startproc
 324              		@ args = 0, pretend = 0, frame = 40
 325              		@ frame_needed = 0, uses_anonymous_args = 0
 326              	.LVL38:
 327              		.loc 3 23 0
 328 0002 2DE9F047 		push	{r4, r5, r6, r7, r8, r9, r10, lr}
 329              		.cfi_def_cfa_offset 32
 330              		.cfi_offset 4, -32
 331              		.cfi_offset 5, -28
 332              		.cfi_offset 6, -24
 333              		.cfi_offset 7, -20
 334              		.cfi_offset 8, -16
 335              		.cfi_offset 9, -12
 336              		.cfi_offset 10, -8
 337              		.cfi_offset 14, -4
 338              		.loc 3 30 0
 339 0006 8688     		ldrh	r6, [r0, #4]
 340              	.LBB261:
 341              		.loc 3 37 0
 342 0008 AC4C     		ldr	r4, .L92
ARM GAS  C:\msys64\tmp\ccZRcnL7.s 			page 7


 343              	.LBE261:
 344              		.loc 3 30 0
 345 000a 3612     		asrs	r6, r6, #8
 346              		.loc 3 23 0
 347 000c 2DED108B 		vpush.64	{d8, d9, d10, d11, d12, d13, d14, d15}
 348              		.cfi_def_cfa_offset 96
 349              		.cfi_offset 80, -96
 350              		.cfi_offset 81, -92
 351              		.cfi_offset 82, -88
 352              		.cfi_offset 83, -84
 353              		.cfi_offset 84, -80
 354              		.cfi_offset 85, -76
 355              		.cfi_offset 86, -72
 356              		.cfi_offset 87, -68
 357              		.cfi_offset 88, -64
 358              		.cfi_offset 89, -60
 359              		.cfi_offset 90, -56
 360              		.cfi_offset 91, -52
 361              		.cfi_offset 92, -48
 362              		.cfi_offset 93, -44
 363              		.cfi_offset 94, -40
 364              		.cfi_offset 95, -36
 365              		.loc 3 30 0
 366 0010 F5B2     		uxtb	r5, r6
 367              	.LVL39:
 368              	.LBB314:
 369              	.LBB315:
 370              		.file 4 "C:/msys64/home/logue-sdk/platform/nutekt-digital/inc/osc_api.h"
 371              		.loc 4 290 0
 372 0012 07EE905A 		vmov	s15, r5	@ int
 373              	.LBE315:
 374              	.LBE314:
 375              		.loc 3 23 0
 376 0016 8AB0     		sub	sp, sp, #40
 377              		.cfi_def_cfa_offset 136
 378              	.LBB319:
 379              	.LBB316:
 380              		.loc 4 290 0
 381 0018 B8EE670A 		vcvt.f32.u32	s0, s15
 382              	.LBE316:
 383              	.LBE319:
 384              		.loc 3 23 0
 385 001c 9046     		mov	r8, r2
 386 001e 8146     		mov	r9, r0
 387 0020 0F46     		mov	r7, r1
 388              	.LBB320:
 389              	.LBB317:
 390              		.loc 4 290 0
 391 0022 FFF7FEFF 		bl	_osc_bl_saw_idx
 392              	.LVL40:
 393              	.LBE317:
 394              	.LBE320:
 395              	.LBB321:
 396              		.loc 3 37 0
 397 0026 94F85030 		ldrb	r3, [r4, #80]	@ zero_extendqisi2
 398              		.loc 3 39 0
 399 002a 1A46     		mov	r2, r3
ARM GAS  C:\msys64\tmp\ccZRcnL7.s 			page 8


 400 002c 6FF30102 		bfc	r2, #0, #2
 401              		.loc 3 41 0
 402 0030 9B07     		lsls	r3, r3, #30
 403              	.LBE321:
 404              	.LBB322:
 405              	.LBB318:
 406              		.loc 4 290 0
 407 0032 B0EE408A 		vmov.f32	s16, s0
 408              	.LVL41:
 409              	.LBE318:
 410              	.LBE322:
 411              	.LBB323:
 412              		.loc 3 39 0
 413 0036 84F85020 		strb	r2, [r4, #80]
 414              		.loc 3 41 0
 415 003a 02D5     		bpl	.L52
 416              		.loc 3 42 0
 417 003c 2046     		mov	r0, r4
 418 003e FFF7FEFF 		bl	_ZN7UberSaw12updateDetuneEv
 419              	.LVL42:
 420              	.L52:
 421              		.loc 3 46 0
 422 0042 99F80430 		ldrb	r3, [r9, #4]	@ zero_extendqisi2
 423              	.LBB262:
 424              	.LBB263:
 425              	.LBB264:
 426              	.LBB265:
 427              		.loc 4 115 0
 428 0046 9E4A     		ldr	r2, .L92+4
 429              	.LBE265:
 430              	.LBE264:
 431              	.LBB270:
 432              	.LBB271:
 433              		.loc 2 826 0
 434 0048 DFED9E6A 		vldr.32	s13, .L92+8
 435              	.LBE271:
 436              	.LBE270:
 437              	.LBE263:
 438              	.LBE262:
 439              	.LBB293:
 440              	.LBB294:
 441              	.LBB295:
 442              	.LBB296:
 443              		.loc 1 101 0
 444 004c 9FED9E6A 		vldr.32	s12, .L92+12
 445              	.LBE296:
 446              	.LBE295:
 447              		.loc 1 85 0
 448 0050 94ED185A 		vldr.32	s10, [r4, #96]
 449              	.LBE294:
 450              	.LBE293:
 451              	.LBB306:
 452              	.LBB290:
 453              		.loc 4 126 0
 454 0054 0135     		adds	r5, r5, #1
 455              	.LVL43:
 456              	.LBB275:
ARM GAS  C:\msys64\tmp\ccZRcnL7.s 			page 9


 457              	.LBB266:
 458              		.loc 4 115 0
 459 0056 962E     		cmp	r6, #150
 460              	.LBE266:
 461              	.LBE275:
 462              	.LBE290:
 463              	.LBE306:
 464              		.loc 3 46 0
 465 0058 07EE903A 		vmov	s15, r3	@ int
 466              	.LVL44:
 467              	.LBB307:
 468              	.LBB291:
 469              		.loc 4 126 0
 470 005c EBB2     		uxtb	r3, r5
 471              	.LBB276:
 472              	.LBB267:
 473              		.loc 4 115 0
 474 005e C8BF     		it	gt
 475 0060 9726     		movgt	r6, #151
 476              	.LVL45:
 477              	.LBE267:
 478              	.LBE276:
 479              	.LBB277:
 480              	.LBB278:
 481 0062 962B     		cmp	r3, #150
 482 0064 88BF     		it	hi
 483 0066 9723     		movhi	r3, #151
 484              	.LBE278:
 485              	.LBE277:
 486              	.LBB280:
 487              	.LBB272:
 488              		.loc 2 826 0
 489 0068 F8EEE77A 		vcvt.f32.s32	s15, s15
 490              	.LBE272:
 491              	.LBE280:
 492              	.LBB281:
 493              	.LBB268:
 494              		.loc 4 115 0
 495 006c 02EB8606 		add	r6, r2, r6, lsl #2
 496              	.LBE268:
 497              	.LBE281:
 498              	.LBB282:
 499              	.LBB279:
 500 0070 02EB8303 		add	r3, r2, r3, lsl #2
 501              	.LBE279:
 502              	.LBE282:
 503              	.LBB283:
 504              	.LBB269:
 505 0074 96ED007A 		vldr.32	s14, [r6]
 506              	.LVL46:
 507 0078 904E     		ldr	r6, .L92
 508              	.LBE269:
 509              	.LBE283:
 510              	.LBB284:
 511              	.LBB273:
 512              		.loc 2 826 0
 513 007a 67EEA67A 		vmul.f32	s15, s15, s13
ARM GAS  C:\msys64\tmp\ccZRcnL7.s 			page 10


 514 007e D3ED006A 		vldr.32	s13, [r3]
 515 0082 76EEC76A 		vsub.f32	s13, s13, s14
 516 0086 06F11802 		add	r2, r6, #24
 517 008a A7EEA67A 		vfma.f32	s14, s15, s13
 518              	.LBE273:
 519              	.LBE284:
 520              	.LBE291:
 521              	.LBE307:
 522              	.LBB308:
 523              	.LBB301:
 524              	.LBB299:
 525              	.LBB297:
 526              		.loc 1 101 0
 527 008e 3346     		mov	r3, r6
 528              	.LBE297:
 529              	.LBE299:
 530              		.loc 1 91 0
 531 0090 F7EE006A 		vmov.f32	s13, #1.0e+0
 532              	.LBE301:
 533              	.LBE308:
 534              	.LBB309:
 535              	.LBB292:
 536              	.LBB285:
 537              	.LBB274:
 538              		.loc 2 826 0
 539 0094 F0EE477A 		vmov.f32	s15, s14
 540              	.LVL47:
 541              	.LBE274:
 542              	.LBE285:
 543              	.LBB286:
 544              	.LBB287:
 545              	.LBB288:
 546              	.LBB289:
 547              		.loc 2 193 0
 548 0098 9FED8C7A 		vldr.32	s14, .L92+16
 549              	.LVL48:
 550 009c F4EEC77A 		vcmpe.f32	s15, s14
 551 00a0 F1EE10FA 		vmrs	APSR_nzcv, FPSCR
 552 00a4 B8BF     		it	lt
 553 00a6 B0EE677A 		vmovlt.f32	s14, s15
 554              	.LVL49:
 555              	.LBE289:
 556              	.LBE288:
 557              	.LBE287:
 558              	.LBE286:
 559              		.loc 4 130 0
 560 00aa DFED897A 		vldr.32	s15, .L92+20
 561 00ae 67EE277A 		vmul.f32	s15, s14, s15
 562              	.LVL50:
 563              	.LBE292:
 564              	.LBE309:
 565              	.LBB310:
 566              	.LBB302:
 567              		.loc 1 82 0
 568 00b2 94ED1B7A 		vldr.32	s14, [r4, #108]
 569              	.LVL51:
 570              		.loc 1 88 0
ARM GAS  C:\msys64\tmp\ccZRcnL7.s 			page 11


 571 00b6 C4ED097A 		vstr.32	s15, [r4, #36]
 572              	.LVL52:
 573              	.LBB300:
 574              	.LBB298:
 575              		.loc 1 101 0
 576 00ba 27EE066A 		vmul.f32	s12, s14, s12
 577 00be F0EE664A 		vmov.f32	s9, s13
 578              		.loc 1 94 0
 579 00c2 B0EE083A 		vmov.f32	s6, #3.0e+0
 580              		.loc 1 101 0
 581 00c6 F1EE453A 		vneg.f32	s7, s10
 582              	.LVL53:
 583              	.L56:
 584              		.loc 1 94 0
 585 00ca C6EE835A 		vdiv.f32	s11, s13, s6
 586              	.LVL54:
 587 00ce 0833     		adds	r3, r3, #8
 588              		.loc 1 101 0
 589 00d0 B0EE644A 		vmov.f32	s8, s9
 590 00d4 A3EEA54A 		vfma.f32	s8, s7, s11
 591 00d8 F0EE462A 		vmov.f32	s5, s12
 592 00dc E7EE842A 		vfma.f32	s5, s15, s8
 593              		.loc 1 103 0
 594 00e0 B0EE644A 		vmov.f32	s8, s9
 595 00e4 A5EE254A 		vfma.f32	s8, s10, s11
 596              		.loc 1 101 0
 597 00e8 C3ED082A 		vstr.32	s5, [r3, #32]
 598              		.loc 1 103 0
 599 00ec F0EE445A 		vmov.f32	s11, s8
 600              	.LVL55:
 601 00f0 B0EE464A 		vmov.f32	s8, s12
 602 00f4 A7EEA54A 		vfma.f32	s8, s15, s11
 603              		.loc 1 104 0
 604 00f8 76EEA46A 		vadd.f32	s13, s13, s9
 605              	.LVL56:
 606              		.loc 1 103 0
 607 00fc 83ED094A 		vstr.32	s8, [r3, #36]
 608              	.LBE298:
 609              		.loc 1 92 0
 610 0100 9A42     		cmp	r2, r3
 611 0102 E2D1     		bne	.L56
 612              	.LBE300:
 613              		.loc 1 108 0
 614 0104 9FED735A 		vldr.32	s10, .L92+24
 615              	.LVL57:
 616 0108 DFF8F0E1 		ldr	lr, .L92+64
 617 010c 27EE055A 		vmul.f32	s10, s14, s10
 618              		.loc 1 111 0
 619 0110 F6EE003A 		vmov.f32	s7, #5.0e-1
 620              		.loc 1 108 0
 621 0114 B0EE452A 		vmov.f32	s4, s10
 622 0118 B0EE007A 		vmov.f32	s14, #2.0e+0
 623              	.LVL58:
 624 011c A7EE872A 		vfma.f32	s4, s15, s14
 625 0120 03A9     		add	r1, sp, #12
 626              	.LBE302:
 627              	.LBE310:
ARM GAS  C:\msys64\tmp\ccZRcnL7.s 			page 12


 628              		.loc 3 49 0
 629 0122 0A46     		mov	r2, r1
 630              	.LBB311:
 631              	.LBB303:
 632              		.loc 1 111 0
 633 0124 A7EEA35A 		vfma.f32	s10, s15, s7
 634              	.LBE303:
 635              	.LBE311:
 636              		.loc 3 49 0
 637 0128 AEF11C03 		sub	r3, lr, #28
 638 012c D9ED007A 		vldr.32	s15, [r9]	@ int
 639              	.LVL59:
 640              	.LBB312:
 641              	.LBB304:
 642              		.loc 1 108 0
 643 0130 84ED102A 		vstr.32	s4, [r4, #64]
 644              	.LBE304:
 645              	.LBE312:
 646              		.loc 3 49 0
 647 0134 FAEEE07A 		vcvt.f32.s32	s15, s15, #31
 648              	.LBB313:
 649              	.LBB305:
 650              		.loc 1 111 0
 651 0138 84ED115A 		vstr.32	s10, [r4, #68]
 652              	.LVL60:
 653              	.LBE305:
 654              	.LBE313:
 655              		.loc 3 49 0
 656 013c C4ED127A 		vstr.32	s15, [r4, #72]
 657              	.LVL61:
 658              	.L57:
 659              	.LBE323:
 660              	.LBB324:
 661              		.loc 3 56 0 discriminator 2
 662 0140 53F8040B 		ldr	r0, [r3], #4	@ float
 663 0144 42F8040B 		str	r0, [r2], #4	@ float
 664              		.loc 3 55 0 discriminator 2
 665 0148 9E45     		cmp	lr, r3
 666 014a F9D1     		bne	.L57
 667              	.LBE324:
 668              		.loc 3 62 0
 669 014c 94ED134A 		vldr.32	s8, [r4, #76]
 670              	.LBB325:
 671              	.LBB326:
 672              	.LBB327:
 673              	.LBB328:
 674              		.loc 4 271 0
 675 0150 6148     		ldr	r0, .L92+28
 676              		.loc 4 261 0
 677 0152 DFED620A 		vldr.32	s1, .L92+32
 678              	.LBE328:
 679              	.LBE327:
 680              	.LBE326:
 681              	.LBE325:
 682              		.loc 3 58 0
 683 0156 D4ED085A 		vldr.32	s11, [r4, #32]
 684              	.LVL62:
ARM GAS  C:\msys64\tmp\ccZRcnL7.s 			page 13


 685              		.loc 3 59 0
 686 015a 94ED076A 		vldr.32	s12, [r4, #28]
 687              	.LVL63:
 688              		.loc 3 68 0
 689 015e D4ED151A 		vldr.32	s3, [r4, #84]
 690              		.loc 3 69 0
 691 0162 94ED161A 		vldr.32	s2, [r4, #88]
 692              		.loc 3 70 0
 693 0166 94ED173A 		vldr.32	s6, [r4, #92]
 694              	.LBB425:
 695              	.LBB422:
 696              		.loc 3 79 0
 697 016a D4ED1A8A 		vldr.32	s17, [r4, #104]
 698              	.LBB342:
 699              	.LBB343:
 700              	.LBB344:
 701              	.LBB345:
 702              	.LBB346:
 703              		.loc 2 193 0
 704 016e 9FED5C9A 		vldr.32	s18, .L92+36
 705              	.LBE346:
 706              	.LBE345:
 707              	.LBE344:
 708              	.LBE343:
 709              	.LBE342:
 710              		.loc 3 82 0
 711 0172 DFED5C9A 		vldr.32	s19, .L92+40
 712 0176 9FED5CAA 		vldr.32	s20, .L92+44
 713              		.loc 3 83 0
 714 017a DFED5CAA 		vldr.32	s21, .L92+48
 715 017e 9FED5CBA 		vldr.32	s22, .L92+52
 716 0182 DFED5CBA 		vldr.32	s23, .L92+56
 717              		.loc 3 110 0
 718 0186 9FED5CCA 		vldr.32	s24, .L92+60
 719              	.LBE422:
 720              	.LBE425:
 721              		.loc 3 65 0
 722 018a 07EE108A 		vmov	s14, r8	@ int
 723 018e 77EEC47A 		vsub.f32	s15, s15, s8
 724 0192 B8EE477A 		vcvt.f32.u32	s14, s14
 725              		.loc 3 74 0
 726 0196 07EB8802 		add	r2, r7, r8, lsl #2
 727              		.loc 3 65 0
 728 019a 87EE870A 		vdiv.f32	s0, s15, s14
 729              	.LVL64:
 730              	.LBB426:
 731              	.LBB423:
 732              	.LBB359:
 733              	.LBB333:
 734              		.loc 4 271 0
 735 019e FCEEC87A 		vcvt.u32.f32	s15, s16
 736 01a2 F0EE602A 		vmov.f32	s5, s1
 737 01a6 CDED017A 		vstr.32	s15, [sp, #4]	@ int
 738 01aa BDF80430 		ldrh	r3, [sp, #4]
 739 01ae 03EBC313 		add	r3, r3, r3, lsl #7
 740 01b2 00EB8303 		add	r3, r0, r3, lsl #2
 741              		.loc 4 275 0
ARM GAS  C:\msys64\tmp\ccZRcnL7.s 			page 14


 742 01b6 03F50175 		add	r5, r3, #516
 743              	.LVL65:
 744              	.L73:
 745              	.LBE333:
 746              	.LBE359:
 747              	.LBE423:
 748              		.loc 3 77 0
 749 01ba 9742     		cmp	r7, r2
 750 01bc 00F0DE81 		beq	.L84
 751              	.LBB424:
 752              		.loc 3 79 0
 753 01c0 34EE287A 		vadd.f32	s14, s8, s17
 754              	.LVL66:
 755              	.LBB360:
 756              	.LBB357:
 757              	.LBB355:
 758              	.LBB348:
 759              	.LBB349:
 760              		.loc 2 193 0
 761 01c4 F7EE007A 		vmov.f32	s15, #1.0e+0
 762              	.LBE349:
 763              	.LBE348:
 764              	.LBB352:
 765              	.LBB347:
 766 01c8 B5EEC07A 		vcmpe.f32	s14, #0
 767 01cc F1EE10FA 		vmrs	APSR_nzcv, FPSCR
 768 01d0 B8BF     		it	lt
 769 01d2 B0EE497A 		vmovlt.f32	s14, s18
 770              	.LVL67:
 771              	.LBE347:
 772              	.LBE352:
 773              	.LBB353:
 774              	.LBB350:
 775 01d6 77EE646A 		vsub.f32	s13, s14, s9
 776              	.LBE350:
 777              	.LBE353:
 778              	.LBE355:
 779              	.LBE357:
 780              	.LBE360:
 781              		.loc 3 89 0
 782 01da DDED03DA 		vldr.32	s27, [sp, #12]
 783              	.LBB361:
 784              	.LBB358:
 785              	.LBB356:
 786              	.LBB354:
 787              	.LBB351:
 788              		.loc 2 193 0
 789 01de F5EE406A 		vcmp.f32	s13, #0
 790 01e2 F1EE10FA 		vmrs	APSR_nzcv, FPSCR
 791 01e6 A8BF     		it	ge
 792 01e8 B0EE677A 		vmovge.f32	s14, s15
 793              	.LVL68:
 794              	.LBE351:
 795              	.LBE354:
 796              	.LBE356:
 797              	.LBE358:
 798              	.LBE361:
ARM GAS  C:\msys64\tmp\ccZRcnL7.s 			page 15


 799              		.loc 3 83 0
 800 01ec 27EE2ADA 		vmul.f32	s26, s14, s21
 801 01f0 67EE0B6A 		vmul.f32	s13, s14, s22
 802              		.loc 3 82 0
 803 01f4 F0EE4ACA 		vmov.f32	s25, s20
 804              		.loc 3 83 0
 805 01f8 EDEE076A 		vfma.f32	s13, s26, s14
 806 01fc 0DF11009 		add	r9, sp, #16
 807              	.LBB362:
 808              	.LBB334:
 809              		.loc 4 261 0
 810 0200 BCEEEDDA 		vcvt.u32.f32	s26, s27
 811              	.LBE334:
 812              	.LBE362:
 813              		.loc 3 82 0
 814 0204 E7EE29CA 		vfma.f32	s25, s14, s19
 815              	.LVL69:
 816              	.LBB363:
 817              	.LBB335:
 818              		.loc 4 261 0
 819 0208 B8EE4DDA 		vcvt.f32.u32	s26, s26
 820              		.loc 4 278 0
 821 020c BCEEC8EA 		vcvt.u32.f32	s28, s16
 822              		.loc 4 261 0
 823 0210 3DEECDDA 		vsub.f32	s26, s27, s26
 824              		.loc 4 278 0
 825 0214 8DED01EA 		vstr.32	s28, [sp, #4]	@ int
 826              		.loc 4 261 0
 827 0218 2DEE20DA 		vmul.f32	s26, s26, s1
 828              	.LBE335:
 829              	.LBE363:
 830              		.loc 3 83 0
 831 021c 76EEAB6A 		vadd.f32	s13, s13, s23
 832              	.LVL70:
 833              	.LBB364:
 834              	.LBB336:
 835              		.loc 4 262 0
 836 0220 BCEECD7A 		vcvt.u32.f32	s14, s26
 837 0224 17EE108A 		vmov	r8, s14	@ int
 838              	.LVL71:
 839              		.loc 4 266 0
 840 0228 B8F17F0F 		cmp	r8, #127
 841              		.loc 4 267 0
 842 022c 8BBF     		itete	hi
 843 022e 08F07F00 		andhi	r0, r8, #127
 844              		.loc 4 265 0
 845 0232 B0EE677A 		vmovls.f32	s14, s15
 846              		.loc 4 267 0
 847 0236 C0F1800C 		rsbhi	ip, r0, #128
 848              		.loc 4 264 0
 849 023a C446     		movls	ip, r8
 850              	.LVL72:
 851              		.loc 4 272 0
 852 023c 07EE908A 		vmov	s15, r8	@ int
 853              		.loc 4 264 0
 854 0240 98BF     		it	ls
 855 0242 08F10100 		addls	r0, r8, #1
ARM GAS  C:\msys64\tmp\ccZRcnL7.s 			page 16


 856              		.loc 4 273 0
 857 0246 4FEA8C0C 		lsl	ip, ip, #2
 858              	.LVL73:
 859              		.loc 4 268 0
 860 024a 88BF     		it	hi
 861 024c C0F17F00 		rsbhi	r0, r0, #127
 862              	.LVL74:
 863              		.loc 4 273 0
 864 0250 03EB0C08 		add	r8, r3, ip
 865              	.LVL75:
 866              		.loc 4 272 0
 867 0254 F8EE677A 		vcvt.f32.u32	s15, s15
 868              	.LVL76:
 869              		.loc 4 273 0
 870 0258 4FEA8000 		lsl	r0, r0, #2
 871              	.LVL77:
 872 025c D8ED00DA 		vldr.32	s27, [r8]
 873              	.LVL78:
 874 0260 03EB0008 		add	r8, r3, r0
 875              		.loc 4 272 0
 876 0264 3DEE67DA 		vsub.f32	s26, s26, s15
 877              	.LVL79:
 878              	.LBB329:
 879              	.LBB330:
 880              		.loc 2 826 0
 881 0268 D8ED007A 		vldr.32	s15, [r8]
 882 026c 77EEED7A 		vsub.f32	s15, s15, s27
 883              	.LBE330:
 884              	.LBE329:
 885              		.loc 4 276 0
 886 0270 AC44     		add	ip, ip, r5
 887 0272 2844     		add	r0, r0, r5
 888              	.LBB332:
 889              	.LBB331:
 890              		.loc 2 826 0
 891 0274 EDEE27DA 		vfma.f32	s27, s26, s15
 892              	.LBE331:
 893              	.LBE332:
 894              	.LBE336:
 895              	.LBE364:
 896              		.loc 3 89 0
 897 0278 90ED00EA 		vldr.32	s28, [r0]
 898              	.LBB365:
 899              	.LBB337:
 900              		.loc 4 276 0
 901 027c DCED007A 		vldr.32	s15, [ip]
 902              		.loc 4 278 0
 903 0280 9DF804C0 		ldrb	ip, [sp, #4]	@ zero_extendqisi2
 904              	.LBE337:
 905              	.LBE365:
 906              		.loc 3 89 0
 907 0284 3EEE67EA 		vsub.f32	s28, s28, s15
 908              	.LBB366:
 909              	.LBB338:
 910              		.loc 4 269 0
 911 0288 88BF     		it	hi
 912 028a BFEE007A 		vmovhi.f32	s14, #-1.0e+0
ARM GAS  C:\msys64\tmp\ccZRcnL7.s 			page 17


 913              	.LVL80:
 914              	.LBE338:
 915              	.LBE366:
 916              		.loc 3 89 0
 917 028e EDEE0E7A 		vfma.f32	s15, s26, s28
 918              	.LBB367:
 919              	.LBB339:
 920              		.loc 4 278 0
 921 0292 0EEE90CA 		vmov	s29, ip	@ int
 922              	.LBE339:
 923              	.LBE367:
 924              		.loc 3 89 0
 925 0296 67EE877A 		vmul.f32	s15, s15, s14
 926              	.LBB368:
 927              	.LBB340:
 928              		.loc 4 278 0
 929 029a F8EEEEEA 		vcvt.f32.s32	s29, s29
 930              	.LBE340:
 931              	.LBE368:
 932              		.loc 3 89 0
 933 029e EDEEC77A 		vfms.f32	s15, s27, s14
 934 02a2 0DF1280C 		add	ip, sp, #40
 935              	.LBB369:
 936              	.LBB341:
 937              		.loc 4 278 0
 938 02a6 78EE6EEA 		vsub.f32	s29, s16, s29
 939              	.LVL81:
 940              	.LBE341:
 941              	.LBE369:
 942              		.loc 3 105 0
 943 02aa 9FED0DDA 		vldr.32	s26, .L92+36
 944              		.loc 3 89 0
 945 02ae 67EEAE7A 		vmul.f32	s15, s15, s29
 946 02b2 EDEE877A 		vfma.f32	s15, s27, s14
 947 02b6 67EEAC7A 		vmul.f32	s15, s15, s25
 948 02ba 21E0     		b	.L93
 949              	.L94:
 950              		.align	2
 951              	.L92:
 952 02bc 00000000 		.word	.LANCHOR0
 953 02c0 00000000 		.word	midi_to_hz_lut_f
 954 02c4 8180803B 		.word	998277249
 955 02c8 3EC3AE36 		.word	917422910
 956 02cc 49FFB846 		.word	1186529097
 957 02d0 3EC3AE37 		.word	934200126
 958 02d4 17B75136 		.word	911324951
 959 02d8 00000000 		.word	wt_saw_lut_f
 960 02dc 00008043 		.word	1132462080
 961 02e0 00000000 		.word	0
 962 02e4 A9BC0DBF 		.word	-1089618775
 963 02e8 19737F3F 		.word	1065317145
 964 02ec FAD53CBF 		.word	-1086532102
 965 02f0 645DA43F 		.word	1067736420
 966 02f4 452FE33E 		.word	1055076165
 967 02f8 ABAA2A3E 		.word	1042983595
 968 02fc 1C000000 		.word	.LANCHOR0+28
 969              	.L93:
ARM GAS  C:\msys64\tmp\ccZRcnL7.s 			page 18


 970              	.LVL82:
 971              	.L65:
 972              	.LBB370:
 973              		.loc 3 107 0 discriminator 2
 974 0300 F9EC01DA 		vldmia.32	r9!, {s27}
 975              	.LVL83:
 976              	.LBB371:
 977              	.LBB372:
 978              		.loc 4 261 0 discriminator 2
 979 0304 FCEEEDCA 		vcvt.u32.f32	s25, s27
 980 0308 F8EE6CCA 		vcvt.f32.u32	s25, s25
 981 030c 7DEEECCA 		vsub.f32	s25, s27, s25
 982 0310 6CEEA2CA 		vmul.f32	s25, s25, s5
 983              	.LVL84:
 984              		.loc 4 262 0 discriminator 2
 985 0314 BCEEEC7A 		vcvt.u32.f32	s14, s25
 986 0318 17EE10AA 		vmov	r10, s14	@ int
 987              	.LVL85:
 988              		.loc 4 266 0 discriminator 2
 989 031c BAF17F0F 		cmp	r10, #127
 990              		.loc 4 267 0 discriminator 2
 991 0320 87BF     		ittee	hi
 992 0322 0AF07F00 		andhi	r0, r10, #127
 993 0326 C0F18008 		rsbhi	r8, r0, #128
 994              		.loc 4 264 0 discriminator 2
 995 032a D046     		movls	r8, r10
 996              	.LVL86:
 997 032c 0AF10100 		addls	r0, r10, #1
 998              		.loc 4 268 0 discriminator 2
 999 0330 88BF     		it	hi
 1000 0332 C0F17F00 		rsbhi	r0, r0, #127
 1001              	.LVL87:
 1002              		.loc 4 272 0 discriminator 2
 1003 0336 B8EE477A 		vcvt.f32.u32	s14, s14
 1004              		.loc 4 273 0 discriminator 2
 1005 033a 4FEA8808 		lsl	r8, r8, #2
 1006              	.LVL88:
 1007 033e 03EB080A 		add	r10, r3, r8
 1008              	.LVL89:
 1009 0342 4FEA8000 		lsl	r0, r0, #2
 1010              	.LVL90:
 1011              		.loc 4 272 0 discriminator 2
 1012 0346 3CEEC7EA 		vsub.f32	s28, s25, s14
 1013              		.loc 4 273 0 discriminator 2
 1014 034a DAED00CA 		vldr.32	s25, [r10]
 1015              	.LVL91:
 1016 034e 03EB000A 		add	r10, r3, r0
 1017              	.LBB373:
 1018              	.LBB374:
 1019              		.loc 2 826 0 discriminator 2
 1020 0352 9AED007A 		vldr.32	s14, [r10]
 1021 0356 37EE6C7A 		vsub.f32	s14, s14, s25
 1022              	.LBE374:
 1023              	.LBE373:
 1024              		.loc 4 276 0 discriminator 2
 1025 035a A844     		add	r8, r8, r5
 1026 035c 2844     		add	r0, r0, r5
ARM GAS  C:\msys64\tmp\ccZRcnL7.s 			page 19


 1027              	.LBB376:
 1028              	.LBB375:
 1029              		.loc 2 826 0 discriminator 2
 1030 035e EEEE07CA 		vfma.f32	s25, s28, s14
 1031              	.LBE375:
 1032              	.LBE376:
 1033              	.LBE372:
 1034              	.LBE371:
 1035              		.loc 3 107 0 discriminator 2
 1036 0362 90ED00FA 		vldr.32	s30, [r0]
 1037              	.LBB380:
 1038              	.LBB377:
 1039              		.loc 4 276 0 discriminator 2
 1040 0366 98ED007A 		vldr.32	s14, [r8]
 1041              	.LBE377:
 1042              	.LBE380:
 1043              		.loc 3 107 0 discriminator 2
 1044 036a 3FEE47FA 		vsub.f32	s30, s30, s14
 1045              	.LBB381:
 1046              	.LBB378:
 1047              		.loc 4 265 0 discriminator 2
 1048 036e 98BF     		it	ls
 1049 0370 F7EE00DA 		vmovls.f32	s27, #1.0e+0
 1050              	.LVL92:
 1051              	.LBE378:
 1052              	.LBE381:
 1053              		.loc 3 107 0 discriminator 2
 1054 0374 AEEE0F7A 		vfma.f32	s14, s28, s30
 1055              	.LBB382:
 1056              	.LBB379:
 1057              		.loc 4 269 0 discriminator 2
 1058 0378 88BF     		it	hi
 1059 037a FFEE00DA 		vmovhi.f32	s27, #-1.0e+0
 1060              	.LVL93:
 1061              	.LBE379:
 1062              	.LBE382:
 1063              		.loc 3 107 0 discriminator 2
 1064 037e 27EE2D7A 		vmul.f32	s14, s14, s27
 1065              		.loc 3 106 0 discriminator 2
 1066 0382 CC45     		cmp	ip, r9
 1067              		.loc 3 107 0 discriminator 2
 1068 0384 ACEEED7A 		vfms.f32	s14, s25, s27
 1069 0388 27EE2E7A 		vmul.f32	s14, s14, s29
 1070 038c ACEEAD7A 		vfma.f32	s14, s25, s27
 1071 0390 A6EE87DA 		vfma.f32	s26, s13, s14
 1072              	.LVL94:
 1073              		.loc 3 106 0 discriminator 2
 1074 0394 B4D1     		bne	.L65
 1075              	.LVL95:
 1076              	.LBE370:
 1077              	.LBB383:
 1078              	.LBB384:
 1079              		.loc 4 261 0
 1080 0396 BCEEE57A 		vcvt.u32.f32	s14, s11
 1081              	.LBE384:
 1082              	.LBE383:
 1083              		.loc 3 110 0
ARM GAS  C:\msys64\tmp\ccZRcnL7.s 			page 20


 1084 039a EDEE0C7A 		vfma.f32	s15, s26, s24
 1085              	.LVL96:
 1086              	.LBB393:
 1087              	.LBB389:
 1088              		.loc 4 261 0
 1089 039e B8EE477A 		vcvt.f32.u32	s14, s14
 1090 03a2 FFEE00CA 		vmov.f32	s25, #-1.0e+0
 1091 03a6 35EEC77A 		vsub.f32	s14, s11, s14
 1092 03aa 27EE227A 		vmul.f32	s14, s14, s5
 1093              	.LVL97:
 1094              		.loc 4 262 0
 1095 03ae FCEEC76A 		vcvt.u32.f32	s13, s14
 1096              	.LVL98:
 1097 03b2 16EE909A 		vmov	r9, s13	@ int
 1098              	.LVL99:
 1099              		.loc 4 266 0
 1100 03b6 B9F17F0F 		cmp	r9, #127
 1101              		.loc 4 267 0
 1102 03ba 86BF     		itte	hi
 1103 03bc 09F07F00 		andhi	r0, r9, #127
 1104 03c0 C0F18008 		rsbhi	r8, r0, #128
 1105              		.loc 4 264 0
 1106 03c4 C846     		movls	r8, r9
 1107              	.LVL100:
 1108              		.loc 4 272 0
 1109 03c6 0DEE109A 		vmov	s26, r9	@ int
 1110              	.LVL101:
 1111              		.loc 4 264 0
 1112 03ca 94BF     		ite	ls
 1113 03cc 09F10100 		addls	r0, r9, #1
 1114              		.loc 4 268 0
 1115 03d0 C0F17F00 		rsbhi	r0, r0, #127
 1116              	.LVL102:
 1117              		.loc 4 273 0
 1118 03d4 4FEA8808 		lsl	r8, r8, #2
 1119              	.LVL103:
 1120 03d8 03EB0809 		add	r9, r3, r8
 1121              	.LVL104:
 1122 03dc 4FEA8000 		lsl	r0, r0, #2
 1123              	.LVL105:
 1124              		.loc 4 272 0
 1125 03e0 B8EE4DDA 		vcvt.f32.u32	s26, s26
 1126              		.loc 4 273 0
 1127 03e4 D9ED00DA 		vldr.32	s27, [r9]
 1128 03e8 03EB0009 		add	r9, r3, r0
 1129              		.loc 4 272 0
 1130 03ec 37EE4DDA 		vsub.f32	s26, s14, s26
 1131              	.LBB385:
 1132              	.LBB386:
 1133              		.loc 2 826 0
 1134 03f0 99ED007A 		vldr.32	s14, [r9]
 1135              	.LVL106:
 1136 03f4 37EE6D7A 		vsub.f32	s14, s14, s27
 1137              	.LBE386:
 1138              	.LBE385:
 1139              		.loc 4 276 0
 1140 03f8 2844     		add	r0, r0, r5
ARM GAS  C:\msys64\tmp\ccZRcnL7.s 			page 21


 1141 03fa A844     		add	r8, r8, r5
 1142              	.LBB388:
 1143              	.LBB387:
 1144              		.loc 2 826 0
 1145 03fc EDEE07DA 		vfma.f32	s27, s26, s14
 1146              	.LBE387:
 1147              	.LBE388:
 1148              	.LBE389:
 1149              	.LBE393:
 1150              		.loc 3 118 0
 1151 0400 90ED00EA 		vldr.32	s28, [r0]
 1152              	.LBB394:
 1153              	.LBB390:
 1154              		.loc 4 276 0
 1155 0404 98ED007A 		vldr.32	s14, [r8]
 1156              	.LBE390:
 1157              	.LBE394:
 1158              		.loc 3 118 0
 1159 0408 3EEE47EA 		vsub.f32	s28, s28, s14
 1160              	.LBB395:
 1161              	.LBB391:
 1162              		.loc 4 265 0
 1163 040c 98BF     		it	ls
 1164 040e F7EE006A 		vmovls.f32	s13, #1.0e+0
 1165              	.LVL107:
 1166              	.LBE391:
 1167              	.LBE395:
 1168              		.loc 3 118 0
 1169 0412 ADEE0E7A 		vfma.f32	s14, s26, s28
 1170              	.LBB396:
 1171              	.LBB392:
 1172              		.loc 4 269 0
 1173 0416 88BF     		it	hi
 1174 0418 F0EE6C6A 		vmovhi.f32	s13, s25
 1175              	.LVL108:
 1176              	.LBE392:
 1177              	.LBE396:
 1178              		.loc 3 118 0
 1179 041c 27EE267A 		vmul.f32	s14, s14, s13
 1180 0420 ADEEE67A 		vfms.f32	s14, s27, s13
 1181 0424 27EE2E7A 		vmul.f32	s14, s14, s29
 1182 0428 ADEEA67A 		vfma.f32	s14, s27, s13
 1183              		.loc 3 121 0
 1184 042c 74EEE16A 		vsub.f32	s13, s9, s3
 1185              		.loc 3 118 0
 1186 0430 27EE237A 		vmul.f32	s14, s14, s7
 1187              	.LVL109:
 1188              		.loc 3 121 0
 1189 0434 21EE87DA 		vmul.f32	s26, s3, s14
 1190 0438 A7EEA6DA 		vfma.f32	s26, s15, s13
 1191              	.LVL110:
 1192              	.LBB397:
 1193              	.LBB398:
 1194              		.loc 4 261 0
 1195 043c FCEEC67A 		vcvt.u32.f32	s15, s12
 1196 0440 F8EE677A 		vcvt.f32.u32	s15, s15
 1197 0444 76EE677A 		vsub.f32	s15, s12, s15
ARM GAS  C:\msys64\tmp\ccZRcnL7.s 			page 22


 1198 0448 67EEA27A 		vmul.f32	s15, s15, s5
 1199              	.LVL111:
 1200              		.loc 4 262 0
 1201 044c FCEEE76A 		vcvt.u32.f32	s13, s15
 1202 0450 16EE909A 		vmov	r9, s13	@ int
 1203              	.LVL112:
 1204              		.loc 4 266 0
 1205 0454 B9F17F0F 		cmp	r9, #127
 1206              		.loc 4 267 0
 1207 0458 87BF     		ittee	hi
 1208 045a 09F07F00 		andhi	r0, r9, #127
 1209 045e C0F18008 		rsbhi	r8, r0, #128
 1210              		.loc 4 264 0
 1211 0462 C846     		movls	r8, r9
 1212              	.LVL113:
 1213 0464 09F10100 		addls	r0, r9, #1
 1214              		.loc 4 268 0
 1215 0468 88BF     		it	hi
 1216 046a C0F17F00 		rsbhi	r0, r0, #127
 1217              	.LVL114:
 1218              		.loc 4 273 0
 1219 046e 4FEA8808 		lsl	r8, r8, #2
 1220              	.LVL115:
 1221 0472 03EB0809 		add	r9, r3, r8
 1222              	.LVL116:
 1223              		.loc 4 272 0
 1224 0476 F8EE666A 		vcvt.f32.u32	s13, s13
 1225              	.LVL117:
 1226              		.loc 4 273 0
 1227 047a 4FEA8000 		lsl	r0, r0, #2
 1228              	.LVL118:
 1229 047e D9ED00DA 		vldr.32	s27, [r9]
 1230 0482 03EB0009 		add	r9, r3, r0
 1231              		.loc 4 272 0
 1232 0486 77EEE67A 		vsub.f32	s15, s15, s13
 1233              	.LVL119:
 1234              	.LBB399:
 1235              	.LBB400:
 1236              		.loc 2 826 0
 1237 048a D9ED006A 		vldr.32	s13, [r9]
 1238 048e 76EEED6A 		vsub.f32	s13, s13, s27
 1239              	.LBE400:
 1240              	.LBE399:
 1241              		.loc 4 276 0
 1242 0492 A844     		add	r8, r8, r5
 1243 0494 2844     		add	r0, r0, r5
 1244              	.LBB402:
 1245              	.LBB401:
 1246              		.loc 2 826 0
 1247 0496 E7EEA6DA 		vfma.f32	s27, s15, s13
 1248              	.LBE401:
 1249              	.LBE402:
 1250              	.LBE398:
 1251              	.LBE397:
 1252              		.loc 3 127 0
 1253 049a 90ED00FA 		vldr.32	s30, [r0]
 1254              	.LBB406:
ARM GAS  C:\msys64\tmp\ccZRcnL7.s 			page 23


 1255              	.LBB403:
 1256              		.loc 4 276 0
 1257 049e D8ED006A 		vldr.32	s13, [r8]
 1258              	.LBE403:
 1259              	.LBE406:
 1260              		.loc 3 127 0
 1261 04a2 3FEE66FA 		vsub.f32	s30, s30, s13
 1262              	.LBB407:
 1263              	.LBB404:
 1264              		.loc 4 265 0
 1265 04a6 98BF     		it	ls
 1266 04a8 B7EE00EA 		vmovls.f32	s28, #1.0e+0
 1267              	.LBE404:
 1268              	.LBE407:
 1269              		.loc 3 127 0
 1270 04ac E7EE8F6A 		vfma.f32	s13, s15, s30
 1271              	.LBB408:
 1272              	.LBB405:
 1273              		.loc 4 269 0
 1274 04b0 88BF     		it	hi
 1275 04b2 BFEE00EA 		vmovhi.f32	s28, #-1.0e+0
 1276              	.LVL120:
 1277              	.LBE405:
 1278              	.LBE408:
 1279              		.loc 3 127 0
 1280 04b6 66EE8E7A 		vmul.f32	s15, s13, s28
 1281              		.loc 3 130 0
 1282 04ba F7EE006A 		vmov.f32	s13, #1.0e+0
 1283              		.loc 3 127 0
 1284 04be EDEECE7A 		vfms.f32	s15, s27, s28
 1285 04c2 67EEAE7A 		vmul.f32	s15, s15, s29
 1286 04c6 EDEE8E7A 		vfma.f32	s15, s27, s28
 1287              		.loc 3 130 0
 1288 04ca 34EEC1EA 		vsub.f32	s28, s9, s2
 1289              		.loc 3 127 0
 1290 04ce 67EEA37A 		vmul.f32	s15, s15, s7
 1291              	.LVL121:
 1292              		.loc 3 130 0
 1293 04d2 61EE27DA 		vmul.f32	s27, s2, s15
 1294 04d6 EDEE0EDA 		vfma.f32	s27, s26, s28
 1295              		.loc 3 133 0
 1296 04da 27EE2D7A 		vmul.f32	s14, s14, s27
 1297              	.LVL122:
 1298              		.loc 3 130 0
 1299 04de B0EE6DDA 		vmov.f32	s26, s27
 1300              	.LVL123:
 1301              		.loc 3 133 0
 1302 04e2 27EE037A 		vmul.f32	s14, s14, s6
 1303 04e6 74EEC3DA 		vsub.f32	s27, s9, s6
 1304 04ea 67EE8D7A 		vmul.f32	s15, s15, s26
 1305              	.LVL124:
 1306 04ee ADEE2D7A 		vfma.f32	s14, s26, s27
 1307 04f2 A3EE277A 		vfma.f32	s14, s6, s15
 1308              	.LBB409:
 1309              	.LBB410:
 1310              	.LBB411:
 1311              	.LBB412:
ARM GAS  C:\msys64\tmp\ccZRcnL7.s 			page 24


 1312              	.LBB413:
 1313              	.LBB414:
 1314              		.loc 2 193 0
 1315 04f6 B4EEEC7A 		vcmpe.f32	s14, s25
 1316              	.LVL125:
 1317 04fa F1EE10FA 		vmrs	APSR_nzcv, FPSCR
 1318              	.LBE414:
 1319              	.LBE413:
 1320              	.LBE412:
 1321              	.LBE411:
 1322              	.LBE410:
 1323              	.LBE409:
 1324              		.loc 3 133 0
 1325 04fe F0EE477A 		vmov.f32	s15, s14
 1326              	.LVL126:
 1327              	.LBB420:
 1328              	.LBB419:
 1329              	.LBB418:
 1330              	.LBB417:
 1331              	.LBB416:
 1332              	.LBB415:
 1333              		.loc 2 193 0
 1334 0502 07DB     		blt	.L91
 1335              	.LVL127:
 1336 0504 B4EEE67A 		vcmpe.f32	s14, s13
 1337 0508 F1EE10FA 		vmrs	APSR_nzcv, FPSCR
 1338 050c A8BF     		it	ge
 1339 050e F0EE667A 		vmovge.f32	s15, s13
 1340 0512 01E0     		b	.L70
 1341              	.LVL128:
 1342              	.L91:
 1343 0514 FFEE007A 		vmov.f32	s15, #-1.0e+0
 1344              	.LVL129:
 1345              	.L70:
 1346              	.LBE415:
 1347              	.LBE416:
 1348              	.LBE417:
 1349              	.LBE418:
 1350              	.LBE419:
 1351              	.LBE420:
 1352              		.loc 3 140 0
 1353 0518 27EEA77A 		vmul.f32	s14, s15, s15
 1354 051c F4EE006A 		vmov.f32	s13, #1.25e-1
 1355 0520 27EEC77A 		vnmul.f32	s14, s15, s14
 1356 0524 DFF87880 		ldr	r8, .L95
 1357 0528 E7EE267A 		vfma.f32	s15, s14, s13
 1358 052c 0846     		mov	r0, r1
 1359 052e FEEEE07A 		vcvt.s32.f32	s15, s15, #31
 1360 0532 E7EC017A 		vstmia.32	r7!, {s15}	@ int
 1361              	.LVL130:
 1362              	.L72:
 1363              	.LBB421:
 1364              		.loc 3 144 0 discriminator 2
 1365 0536 90ED007A 		vldr.32	s14, [r0]
 1366 053a F8EC017A 		vldmia.32	r8!, {s15}
 1367 053e 77EE877A 		vadd.f32	s15, s15, s14
 1368              		.loc 3 145 0 discriminator 2
ARM GAS  C:\msys64\tmp\ccZRcnL7.s 			page 25


 1369 0542 BCEEE77A 		vcvt.u32.f32	s14, s15
 1370 0546 B8EE477A 		vcvt.f32.u32	s14, s14
 1371 054a 77EEC77A 		vsub.f32	s15, s15, s14
 1372 054e E0EC017A 		vstmia.32	r0!, {s15}
 1373              		.loc 3 143 0 discriminator 2
 1374 0552 8445     		cmp	ip, r0
 1375 0554 EFD1     		bne	.L72
 1376              	.LBE421:
 1377              		.loc 3 149 0
 1378 0556 75EE855A 		vadd.f32	s11, s11, s10
 1379              	.LVL131:
 1380              		.loc 3 153 0
 1381 055a 36EE026A 		vadd.f32	s12, s12, s4
 1382              	.LVL132:
 1383              		.loc 3 150 0
 1384 055e FCEEE57A 		vcvt.u32.f32	s15, s11
 1385              		.loc 3 157 0
 1386 0562 34EE004A 		vadd.f32	s8, s8, s0
 1387              	.LVL133:
 1388              		.loc 3 150 0
 1389 0566 F8EE677A 		vcvt.f32.u32	s15, s15
 1390 056a 75EEE75A 		vsub.f32	s11, s11, s15
 1391              	.LVL134:
 1392              		.loc 3 154 0
 1393 056e FCEEC67A 		vcvt.u32.f32	s15, s12
 1394 0572 F8EE677A 		vcvt.f32.u32	s15, s15
 1395 0576 36EE676A 		vsub.f32	s12, s12, s15
 1396              	.LVL135:
 1397              	.LBE424:
 1398              		.loc 3 77 0
 1399 057a 1EE6     		b	.L73
 1400              	.LVL136:
 1401              	.L84:
 1402              	.LBE426:
 1403              	.LBB427:
 1404              		.loc 3 162 0 discriminator 2
 1405 057c 51F8043B 		ldr	r3, [r1], #4	@ float
 1406 0580 46F8043B 		str	r3, [r6], #4	@ float
 1407              	.LVL137:
 1408              		.loc 3 161 0 discriminator 2
 1409 0584 B645     		cmp	lr, r6
 1410 0586 F9D1     		bne	.L84
 1411              	.LBE427:
 1412              		.loc 3 166 0
 1413 0588 C4ED085A 		vstr.32	s11, [r4, #32]
 1414              		.loc 3 167 0
 1415 058c 84ED076A 		vstr.32	s12, [r4, #28]
 1416              		.loc 3 170 0
 1417 0590 84ED134A 		vstr.32	s8, [r4, #76]
 1418              		.loc 3 171 0
 1419 0594 0AB0     		add	sp, sp, #40
 1420              		.cfi_def_cfa_offset 96
 1421              		@ sp needed
 1422 0596 BDEC108B 		vldm	sp!, {d8-d15}
 1423              		.cfi_restore 94
 1424              		.cfi_restore 95
 1425              		.cfi_restore 92
ARM GAS  C:\msys64\tmp\ccZRcnL7.s 			page 26


 1426              		.cfi_restore 93
 1427              		.cfi_restore 90
 1428              		.cfi_restore 91
 1429              		.cfi_restore 88
 1430              		.cfi_restore 89
 1431              		.cfi_restore 86
 1432              		.cfi_restore 87
 1433              		.cfi_restore 84
 1434              		.cfi_restore 85
 1435              		.cfi_restore 82
 1436              		.cfi_restore 83
 1437              		.cfi_restore 80
 1438              		.cfi_restore 81
 1439              		.cfi_def_cfa_offset 32
 1440 059a BDE8F087 		pop	{r4, r5, r6, r7, r8, r9, r10, pc}
 1441              	.LVL138:
 1442              	.L96:
 1443 059e 00BF     		.align	2
 1444              	.L95:
 1445 05a0 24000000 		.word	.LANCHOR0+36
 1446              		.cfi_endproc
 1447              	.LFE252:
 1448              		.size	_hook_cycle, .-_hook_cycle
 1449              		.align	1
 1450              		.global	_hook_on
 1451              		.thumb
 1452              		.thumb_func
 1453              		.type	_hook_on, %function
 1454              	_hook_on:
 1455              	.LFB259:
 1456              		.cfi_startproc
 1457              		@ args = 0, pretend = 0, frame = 0
 1458              		@ frame_needed = 0, uses_anonymous_args = 0
 1459              		@ link register save eliminated.
 1460 05a4 7047     		bx	lr
 1461              		.cfi_endproc
 1462              	.LFE259:
 1463              		.size	_hook_on, .-_hook_on
 1464              		.align	1
 1465              		.global	_hook_off
 1466              		.thumb
 1467              		.thumb_func
 1468              		.type	_hook_off, %function
 1469              	_hook_off:
 1470              	.LFB254:
 1471              		.loc 3 177 0
 1472              		.cfi_startproc
 1473              		@ args = 0, pretend = 0, frame = 0
 1474              		@ frame_needed = 0, uses_anonymous_args = 0
 1475              		@ link register save eliminated.
 1476              	.LVL139:
 1477 05a6 7047     		bx	lr
 1478              		.cfi_endproc
 1479              	.LFE254:
 1480              		.size	_hook_off, .-_hook_off
 1481              		.align	1
 1482              		.global	_hook_param
ARM GAS  C:\msys64\tmp\ccZRcnL7.s 			page 27


 1483              		.thumb
 1484              		.thumb_func
 1485              		.type	_hook_param, %function
 1486              	_hook_param:
 1487              	.LFB255:
 1488              		.loc 3 181 0
 1489              		.cfi_startproc
 1490              		@ args = 0, pretend = 0, frame = 0
 1491              		@ frame_needed = 0, uses_anonymous_args = 0
 1492              		@ link register save eliminated.
 1493              	.LVL140:
 1494              		.loc 3 181 0
 1495 05a8 07EE901A 		vmov	s15, r1	@ int
 1496              		.loc 3 188 0
 1497 05ac 0728     		cmp	r0, #7
 1498 05ae 79D8     		bhi	.L99
 1499 05b0 DFE800F0 		tbb	[pc, r0]
 1500              	.L102:
 1501 05b4 04       		.byte	(.L101-.L102)/2
 1502 05b5 1F       		.byte	(.L103-.L102)/2
 1503 05b6 3A       		.byte	(.L104-.L102)/2
 1504 05b7 55       		.byte	(.L105-.L102)/2
 1505 05b8 78       		.byte	(.L99-.L102)/2
 1506 05b9 78       		.byte	(.L99-.L102)/2
 1507 05ba 65       		.byte	(.L106-.L102)/2
 1508 05bb 6F       		.byte	(.L107-.L102)/2
 1509              		.p2align 1
 1510              	.L101:
 1511              		.loc 3 193 0
 1512 05bc F8EEE77A 		vcvt.f32.s32	s15, s15
 1513 05c0 9FED397A 		vldr.32	s14, .L126
 1514 05c4 67EE877A 		vmul.f32	s15, s15, s14
 1515              	.LVL141:
 1516              	.LBB428:
 1517              	.LBB429:
 1518              	.LBB430:
 1519              	.LBB431:
 1520              		.loc 2 193 0
 1521 05c8 F5EEC07A 		vcmpe.f32	s15, #0
 1522 05cc F1EE10FA 		vmrs	APSR_nzcv, FPSCR
 1523 05d0 09DB     		blt	.L123
 1524              	.LVL142:
 1525              	.LBE431:
 1526              	.LBE430:
 1527              	.LBB433:
 1528              	.LBB434:
 1529 05d2 B7EE007A 		vmov.f32	s14, #1.0e+0
 1530              	.LBE434:
 1531              	.LBE433:
 1532              	.LBB435:
 1533              	.LBB432:
 1534 05d6 F4EEC77A 		vcmpe.f32	s15, s14
 1535 05da F1EE10FA 		vmrs	APSR_nzcv, FPSCR
 1536 05de A8BF     		it	ge
 1537 05e0 F0EE477A 		vmovge.f32	s15, s14
 1538              	.LVL143:
 1539 05e4 01E0     		b	.L108
ARM GAS  C:\msys64\tmp\ccZRcnL7.s 			page 28


 1540              	.LVL144:
 1541              	.L123:
 1542 05e6 DFED317A 		vldr.32	s15, .L126+4
 1543              	.LVL145:
 1544              	.L108:
 1545              	.LBE432:
 1546              	.LBE435:
 1547              	.LBE429:
 1548              	.LBE428:
 1549              		.loc 3 193 0
 1550 05ea 314B     		ldr	r3, .L126+8
 1551 05ec C3ED157A 		vstr.32	s15, [r3, #84]
 1552 05f0 7047     		bx	lr
 1553              	.L103:
 1554              		.loc 3 199 0
 1555 05f2 F8EEE77A 		vcvt.f32.s32	s15, s15
 1556 05f6 9FED2C7A 		vldr.32	s14, .L126
 1557 05fa 67EE877A 		vmul.f32	s15, s15, s14
 1558              	.LVL146:
 1559              	.LBB436:
 1560              	.LBB437:
 1561              	.LBB438:
 1562              	.LBB439:
 1563              		.loc 2 193 0
 1564 05fe F5EEC07A 		vcmpe.f32	s15, #0
 1565 0602 F1EE10FA 		vmrs	APSR_nzcv, FPSCR
 1566 0606 09DB     		blt	.L124
 1567              	.LVL147:
 1568              	.LBE439:
 1569              	.LBE438:
 1570              	.LBB441:
 1571              	.LBB442:
 1572 0608 B7EE007A 		vmov.f32	s14, #1.0e+0
 1573              	.LBE442:
 1574              	.LBE441:
 1575              	.LBB443:
 1576              	.LBB440:
 1577 060c F4EEC77A 		vcmpe.f32	s15, s14
 1578 0610 F1EE10FA 		vmrs	APSR_nzcv, FPSCR
 1579 0614 A8BF     		it	ge
 1580 0616 F0EE477A 		vmovge.f32	s15, s14
 1581              	.LVL148:
 1582 061a 01E0     		b	.L110
 1583              	.LVL149:
 1584              	.L124:
 1585 061c DFED237A 		vldr.32	s15, .L126+4
 1586              	.LVL150:
 1587              	.L110:
 1588              	.LBE440:
 1589              	.LBE443:
 1590              	.LBE437:
 1591              	.LBE436:
 1592              		.loc 3 199 0
 1593 0620 234B     		ldr	r3, .L126+8
 1594 0622 C3ED167A 		vstr.32	s15, [r3, #88]
 1595 0626 7047     		bx	lr
 1596              	.L104:
ARM GAS  C:\msys64\tmp\ccZRcnL7.s 			page 29


 1597              		.loc 3 205 0
 1598 0628 F8EEE77A 		vcvt.f32.s32	s15, s15
 1599 062c 9FED1E7A 		vldr.32	s14, .L126
 1600 0630 67EE877A 		vmul.f32	s15, s15, s14
 1601              	.LVL151:
 1602              	.LBB444:
 1603              	.LBB445:
 1604              	.LBB446:
 1605              	.LBB447:
 1606              		.loc 2 193 0
 1607 0634 F5EEC07A 		vcmpe.f32	s15, #0
 1608 0638 F1EE10FA 		vmrs	APSR_nzcv, FPSCR
 1609 063c 09DB     		blt	.L125
 1610              	.LVL152:
 1611              	.LBE447:
 1612              	.LBE446:
 1613              	.LBB449:
 1614              	.LBB450:
 1615 063e B7EE007A 		vmov.f32	s14, #1.0e+0
 1616              	.LBE450:
 1617              	.LBE449:
 1618              	.LBB451:
 1619              	.LBB448:
 1620 0642 F4EEC77A 		vcmpe.f32	s15, s14
 1621 0646 F1EE10FA 		vmrs	APSR_nzcv, FPSCR
 1622 064a A8BF     		it	ge
 1623 064c F0EE477A 		vmovge.f32	s15, s14
 1624              	.LVL153:
 1625 0650 01E0     		b	.L112
 1626              	.LVL154:
 1627              	.L125:
 1628 0652 DFED167A 		vldr.32	s15, .L126+4
 1629              	.LVL155:
 1630              	.L112:
 1631              	.LBE448:
 1632              	.LBE451:
 1633              	.LBE445:
 1634              	.LBE444:
 1635              		.loc 3 205 0
 1636 0656 164B     		ldr	r3, .L126+8
 1637 0658 C3ED177A 		vstr.32	s15, [r3, #92]
 1638 065c 7047     		bx	lr
 1639              	.L105:
 1640              		.loc 3 211 0
 1641 065e 144B     		ldr	r3, .L126+8
 1642 0660 9FED117A 		vldr.32	s14, .L126
 1643              		.loc 3 213 0
 1644 0664 93F85020 		ldrb	r2, [r3, #80]	@ zero_extendqisi2
 1645              		.loc 3 211 0
 1646 0668 F8EEE77A 		vcvt.f32.s32	s15, s15
 1647              		.loc 3 213 0
 1648 066c 42F00202 		orr	r2, r2, #2
 1649              		.loc 3 211 0
 1650 0670 67EE877A 		vmul.f32	s15, s15, s14
 1651              		.loc 3 213 0
 1652 0674 83F85020 		strb	r2, [r3, #80]
 1653              		.loc 3 211 0
ARM GAS  C:\msys64\tmp\ccZRcnL7.s 			page 30


 1654 0678 C3ED197A 		vstr.32	s15, [r3, #100]
 1655              		.loc 3 213 0
 1656 067c 7047     		bx	lr
 1657              	.L106:
 1658              		.loc 3 221 0
 1659 067e F8EEE77A 		vcvt.f32.s32	s15, s15
 1660 0682 9FED0C7A 		vldr.32	s14, .L126+12
 1661 0686 0A4B     		ldr	r3, .L126+8
 1662 0688 67EE877A 		vmul.f32	s15, s15, s14
 1663 068c C3ED1A7A 		vstr.32	s15, [r3, #104]
 1664 0690 7047     		bx	lr
 1665              	.L107:
 1666              		.loc 3 226 0
 1667 0692 F8EEE77A 		vcvt.f32.s32	s15, s15
 1668 0696 9FED077A 		vldr.32	s14, .L126+12
 1669 069a 054B     		ldr	r3, .L126+8
 1670 069c 67EE877A 		vmul.f32	s15, s15, s14
 1671 06a0 C3ED1B7A 		vstr.32	s15, [r3, #108]
 1672              	.L99:
 1673 06a4 7047     		bx	lr
 1674              	.L127:
 1675 06a6 00BF     		.align	2
 1676              	.L126:
 1677 06a8 0AD7233C 		.word	1008981770
 1678 06ac 00000000 		.word	0
 1679 06b0 00000000 		.word	.LANCHOR0
 1680 06b4 0820803A 		.word	981475336
 1681              		.cfi_endproc
 1682              	.LFE255:
 1683              		.size	_hook_param, .-_hook_param
 1684              		.section	.text.startup,"ax",%progbits
 1685              		.align	1
 1686              		.thumb
 1687              		.thumb_func
 1688              		.type	_GLOBAL__sub_I__hook_init, %function
 1689              	_GLOBAL__sub_I__hook_init:
 1690              	.LFB257:
 1691              		.loc 3 230 0
 1692              		.cfi_startproc
 1693              		@ args = 0, pretend = 0, frame = 0
 1694              		@ frame_needed = 0, uses_anonymous_args = 0
 1695              	.LVL156:
 1696              	.LBB464:
 1697              	.LBB465:
 1698              	.LBB466:
 1699              	.LBB467:
 1700              	.LBB468:
 1701              	.LBB469:
 1702              		.loc 1 63 0
 1703 0000 114B     		ldr	r3, .L131
 1704 0002 124A     		ldr	r2, .L131+4
 1705 0004 93F85010 		ldrb	r1, [r3, #80]	@ zero_extendqisi2
 1706              	.LBE469:
 1707              	.LBE468:
 1708              	.LBE467:
 1709              	.LBE466:
 1710              	.LBE465:
ARM GAS  C:\msys64\tmp\ccZRcnL7.s 			page 31


 1711              	.LBE464:
 1712              		.loc 3 230 0
 1713 0008 10B5     		push	{r4, lr}
 1714              		.cfi_def_cfa_offset 8
 1715              		.cfi_offset 4, -8
 1716              		.cfi_offset 14, -4
 1717              	.LBB479:
 1718              	.LBB478:
 1719              	.LBB477:
 1720              	.LBB476:
 1721              	.LBB473:
 1722              	.LBB472:
 1723              		.loc 1 63 0
 1724 000a 1A64     		str	r2, [r3, #64]	@ float
 1725 000c 104A     		ldr	r2, .L131+8
 1726 000e 5A64     		str	r2, [r3, #68]	@ float
 1727 0010 6FF30101 		bfc	r1, #0, #2
 1728 0014 0022     		movs	r2, #0
 1729              	.LBB470:
 1730              		.loc 1 66 0
 1731 0016 0F4C     		ldr	r4, .L131+12
 1732              	.LBE470:
 1733              		.loc 1 63 0
 1734 0018 83F85010 		strb	r1, [r3, #80]
 1735              	.LVL157:
 1736 001c 9A64     		str	r2, [r3, #72]	@ float
 1737 001e DA64     		str	r2, [r3, #76]	@ float
 1738 0020 03F12401 		add	r1, r3, #36
 1739 0024 03F14000 		add	r0, r3, #64
 1740              	.LVL158:
 1741              	.L129:
 1742              	.LBB471:
 1743              		.loc 1 66 0
 1744 0028 41F8044B 		str	r4, [r1], #4	@ float
 1745              		.loc 1 65 0
 1746 002c 8142     		cmp	r1, r0
 1747 002e FBD1     		bne	.L129
 1748              	.LVL159:
 1749              	.LBE471:
 1750              	.LBE472:
 1751              	.LBE473:
 1752              	.LBB474:
 1753              	.LBB475:
 1754              		.loc 1 43 0
 1755 0030 5A65     		str	r2, [r3, #84]	@ float
 1756 0032 9A65     		str	r2, [r3, #88]	@ float
 1757 0034 DA65     		str	r2, [r3, #92]	@ float
 1758 0036 1A66     		str	r2, [r3, #96]	@ float
 1759 0038 5A66     		str	r2, [r3, #100]	@ float
 1760 003a 9A66     		str	r2, [r3, #104]	@ float
 1761 003c DA66     		str	r2, [r3, #108]	@ float
 1762              	.LVL160:
 1763              	.LBE475:
 1764              	.LBE474:
 1765              		.loc 1 72 0
 1766 003e 0248     		ldr	r0, .L131
 1767 0040 FFF7FEFF 		bl	_ZN7UberSaw4initEv
ARM GAS  C:\msys64\tmp\ccZRcnL7.s 			page 32


 1768              	.LVL161:
 1769 0044 10BD     		pop	{r4, pc}
 1770              	.L132:
 1771 0046 00BF     		.align	2
 1772              	.L131:
 1773 0048 00000000 		.word	.LANCHOR0
 1774 004c C92F963C 		.word	1016475593
 1775 0050 C92F963B 		.word	999698377
 1776 0054 C92F163C 		.word	1008086985
 1777              	.LBE476:
 1778              	.LBE477:
 1779              	.LBE478:
 1780              	.LBE479:
 1781              		.cfi_endproc
 1782              	.LFE257:
 1783              		.size	_GLOBAL__sub_I__hook_init, .-_GLOBAL__sub_I__hook_init
 1784              		.section	.init_array,"aw",%init_array
 1785              		.align	2
 1786 0000 00000000 		.word	_GLOBAL__sub_I__hook_init(target1)
 1787              		.bss
 1788              		.align	2
 1789              		.set	.LANCHOR0,. + 0
 1790              		.type	_ZL7ubersaw, %object
 1791              		.size	_ZL7ubersaw, 112
 1792              	_ZL7ubersaw:
 1793 0000 00000000 		.space	112
 1793      00000000 
 1793      00000000 
 1793      00000000 
 1793      00000000 
 1794              		.text
 1795              	.Letext0:
 1796              		.file 5 "c:\\msys64\\home\\logue-sdk\\tools\\gcc\\gcc-arm-none-eabi-5_4-2016q3\\arm-none-eabi\\inc
 1797              		.file 6 "c:\\msys64\\home\\logue-sdk\\tools\\gcc\\gcc-arm-none-eabi-5_4-2016q3\\arm-none-eabi\\inc
 1798              		.file 7 "c:\\msys64\\home\\logue-sdk\\platform\\ext\\cmsis\\cmsis\\include\\arm_math.h"
 1799              		.file 8 "C:/msys64/home/logue-sdk/platform/nutekt-digital/inc/userosc.h"
 1800              		.file 9 "C:/msys64/home/logue-sdk/platform/nutekt-digital/inc/userprg.h"
 1801              		.file 10 "C:/msys64/home/logue-sdk/platform/nutekt-digital/inc/utils/int_math.h"