ARM GAS  C:\msys64\tmp\cckY1pdn.s 			page 1


   1              		.syntax unified
   2              		.cpu cortex-m4
   3              		.eabi_attribute 27, 1
   4              		.eabi_attribute 28, 1
   5              		.fpu fpv4-sp-d16
   6              		.eabi_attribute 20, 1
   7              		.eabi_attribute 21, 1
   8              		.eabi_attribute 23, 3
   9              		.eabi_attribute 24, 1
  10              		.eabi_attribute 25, 1
  11              		.eabi_attribute 26, 1
  12              		.eabi_attribute 30, 4
  13              		.eabi_attribute 34, 1
  14              		.eabi_attribute 18, 4
  15              		.thumb
  16              		.syntax unified
  17              		.file	"ubersaw_v1.1.cpp"
  18              		.text
  19              	.Ltext0:
  20              		.cfi_sections	.debug_frame
  21              		.section	.text._ZN7UberSaw16buildDetuneTableEv,"axG",%progbits,_ZN7UberSaw16buildDetuneTableEv,com
  22              		.align	1
  23              		.weak	_ZN7UberSaw16buildDetuneTableEv
  24              		.thumb
  25              		.thumb_func
  26              		.type	_ZN7UberSaw16buildDetuneTableEv, %function
  27              	_ZN7UberSaw16buildDetuneTableEv:
  28              	.LFB291:
  29              		.file 1 "ubersaw_v1.1.hpp"
  30              		.loc 1 174 0
  31              		.cfi_startproc
  32              		@ args = 0, pretend = 0, frame = 0
  33              		@ frame_needed = 0, uses_anonymous_args = 0
  34              		@ link register save eliminated.
  35              	.LVL0:
  36 0000 2DED048B 		vpush.64	{d8, d9}
  37              		.cfi_def_cfa_offset 16
  38              		.cfi_offset 80, -16
  39              		.cfi_offset 81, -12
  40              		.cfi_offset 82, -8
  41              		.cfi_offset 83, -4
  42 0004 4749     		ldr	r1, .L45
  43              	.LBB144:
  44              	.LBB145:
  45              		.loc 1 182 0
  46 0006 9FED483A 		vldr.32	s6, .L45+4
  47              		.loc 1 245 0
  48 000a DFED482A 		vldr.32	s5, .L45+8
  49 000e 9FED482A 		vldr.32	s4, .L45+12
  50 0012 DFED481A 		vldr.32	s3, .L45+16
  51 0016 9FED481A 		vldr.32	s2, .L45+20
  52 001a DFED480A 		vldr.32	s1, .L45+24
  53 001e 9FED480A 		vldr.32	s0, .L45+28
  54 0022 9FED488A 		vldr.32	s16, .L45+32
  55 0026 DFED488A 		vldr.32	s17, .L45+36
  56              	.LBE145:
  57              		.loc 1 176 0
ARM GAS  C:\msys64\tmp\cckY1pdn.s 			page 2


  58 002a 0022     		movs	r2, #0
  59              	.LVL1:
  60              	.L13:
  61              	.LBB156:
  62              		.loc 1 182 0
  63 002c 07EE902A 		vmov	s15, r2	@ int
  64 0030 B8EEE77A 		vcvt.f32.s32	s14, s15
  65              	.LBB146:
  66              		.loc 1 198 0
  67 0034 0023     		movs	r3, #0
  68              	.LBE146:
  69              		.loc 1 182 0
  70 0036 27EE037A 		vmul.f32	s14, s14, s6
  71              	.LVL2:
  72              		.loc 1 190 0
  73 003a F0EE476A 		vmov.f32	s13, s14
  74 003e B0EE476A 		vmov.f32	s12, s14
  75 0042 F0EE475A 		vmov.f32	s11, s14
  76 0046 B0EE475A 		vmov.f32	s10, s14
  77 004a F0EE474A 		vmov.f32	s9, s14
  78 004e B0EE474A 		vmov.f32	s8, s14
  79 0052 F0EE473A 		vmov.f32	s7, s14
  80 0056 B0EE479A 		vmov.f32	s18, s14
  81 005a F0EE477A 		vmov.f32	s15, s14
  82 005e F0EE479A 		vmov.f32	s19, s14
  83              	.LVL3:
  84              	.L10:
  85              	.LBB147:
  86              		.loc 1 199 0
  87 0062 69EE879A 		vmul.f32	s19, s19, s14
  88              	.LVL4:
  89              		.loc 1 200 0
  90 0066 0BB3     		cbz	r3, .L9
  91              		.loc 1 203 0
  92 0068 012B     		cmp	r3, #1
  93              		.loc 1 201 0
  94 006a 67EE877A 		vmul.f32	s15, s15, s14
  95              	.LVL5:
  96              		.loc 1 203 0
  97 006e 1DD0     		beq	.L9
  98              		.loc 1 206 0
  99 0070 022B     		cmp	r3, #2
 100              		.loc 1 204 0
 101 0072 29EE079A 		vmul.f32	s18, s18, s14
 102              	.LVL6:
 103              		.loc 1 206 0
 104 0076 19D0     		beq	.L9
 105              		.loc 1 209 0
 106 0078 032B     		cmp	r3, #3
 107              		.loc 1 207 0
 108 007a 63EE873A 		vmul.f32	s7, s7, s14
 109              	.LVL7:
 110              		.loc 1 209 0
 111 007e 15D0     		beq	.L9
 112              		.loc 1 212 0
 113 0080 042B     		cmp	r3, #4
 114              		.loc 1 210 0
ARM GAS  C:\msys64\tmp\cckY1pdn.s 			page 3


 115 0082 24EE074A 		vmul.f32	s8, s8, s14
 116              	.LVL8:
 117              		.loc 1 212 0
 118 0086 11D0     		beq	.L9
 119              		.loc 1 215 0
 120 0088 052B     		cmp	r3, #5
 121              		.loc 1 213 0
 122 008a 64EE874A 		vmul.f32	s9, s9, s14
 123              	.LVL9:
 124              		.loc 1 215 0
 125 008e 0DD0     		beq	.L9
 126              		.loc 1 218 0
 127 0090 062B     		cmp	r3, #6
 128              		.loc 1 216 0
 129 0092 25EE075A 		vmul.f32	s10, s10, s14
 130              	.LVL10:
 131              		.loc 1 218 0
 132 0096 09D0     		beq	.L9
 133              		.loc 1 221 0
 134 0098 072B     		cmp	r3, #7
 135              		.loc 1 219 0
 136 009a 65EE875A 		vmul.f32	s11, s11, s14
 137              	.LVL11:
 138              		.loc 1 221 0
 139 009e 05D0     		beq	.L9
 140              		.loc 1 224 0
 141 00a0 092B     		cmp	r3, #9
 142              		.loc 1 222 0
 143 00a2 26EE076A 		vmul.f32	s12, s12, s14
 144              	.LVL12:
 145              		.loc 1 225 0
 146 00a6 08BF     		it	eq
 147 00a8 66EE876A 		vmuleq.f32	s13, s13, s14
 148              	.LVL13:
 149              	.L9:
 150              		.loc 1 198 0 discriminator 2
 151 00ac 0133     		adds	r3, r3, #1
 152              	.LVL14:
 153 00ae 0A2B     		cmp	r3, #10
 154 00b0 D7D1     		bne	.L10
 155              	.LVL15:
 156              	.LBE147:
 157              		.loc 1 245 0 discriminator 2
 158 00b2 62EEE77A 		vnmul.f32	s15, s5, s15
 159              	.LVL16:
 160 00b6 E9EE827A 		vfma.f32	s15, s19, s4
 161 00ba E9EE217A 		vfma.f32	s15, s18, s3
 162 00be E3EEC17A 		vfms.f32	s15, s7, s2
 163 00c2 E4EE207A 		vfma.f32	s15, s8, s1
 164 00c6 E4EEC07A 		vfms.f32	s15, s9, s0
 165 00ca E5EE087A 		vfma.f32	s15, s10, s16
 166 00ce E5EEE87A 		vfms.f32	s15, s11, s17
 167 00d2 DFED1E5A 		vldr.32	s11, .L45+40
 168              	.LVL17:
 169 00d6 E6EE257A 		vfma.f32	s15, s12, s11
 170 00da 9FED1D6A 		vldr.32	s12, .L45+44
 171              	.LVL18:
ARM GAS  C:\msys64\tmp\cckY1pdn.s 			page 4


 172 00de E6EEC67A 		vfms.f32	s15, s13, s12
 173 00e2 DFED1C6A 		vldr.32	s13, .L45+48
 174              	.LVL19:
 175 00e6 E7EE267A 		vfma.f32	s15, s14, s13
 176 00ea 9FED1B7A 		vldr.32	s14, .L45+52
 177              	.LVL20:
 178 00ee 77EE877A 		vadd.f32	s15, s15, s14
 179              	.LVL21:
 180              	.LBB148:
 181              	.LBB149:
 182              	.LBB150:
 183              	.LBB151:
 184              		.file 2 "C:/msys64/home/logue-sdk/platform/nutekt-digital/inc/utils/float_math.h"
 185              		.loc 2 193 0 discriminator 2
 186 00f2 F5EEC07A 		vcmpe.f32	s15, #0
 187 00f6 F1EE10FA 		vmrs	APSR_nzcv, FPSCR
 188 00fa 09DB     		blt	.L43
 189              	.LVL22:
 190              	.LBE151:
 191              	.LBE150:
 192              	.LBB153:
 193              	.LBB154:
 194              		.loc 2 193 0 is_stmt 0
 195 00fc B7EE007A 		vmov.f32	s14, #1.0e+0
 196              	.LBE154:
 197              	.LBE153:
 198              	.LBB155:
 199              	.LBB152:
 200 0100 F4EEC77A 		vcmpe.f32	s15, s14
 201 0104 F1EE10FA 		vmrs	APSR_nzcv, FPSCR
 202 0108 A8BF     		it	ge
 203 010a F0EE477A 		vmovge.f32	s15, s14
 204              	.LVL23:
 205 010e 01E0     		b	.L11
 206              	.LVL24:
 207              	.L43:
 208 0110 DFED127A 		vldr.32	s15, .L45+56
 209              	.LVL25:
 210              	.L11:
 211              	.LBE152:
 212              	.LBE155:
 213              	.LBE149:
 214              	.LBE148:
 215              		.loc 1 257 0 is_stmt 1
 216 0114 E1EC017A 		vstmia.32	r1!, {s15}
 217              	.LBE156:
 218              		.loc 1 176 0
 219 0118 0132     		adds	r2, r2, #1
 220              	.LVL26:
 221 011a 652A     		cmp	r2, #101
 222 011c 86D1     		bne	.L13
 223              	.LBE144:
 224              		.loc 1 260 0
 225 011e BDEC048B 		vldm	sp!, {d8-d9}
 226              		.cfi_restore 82
 227              		.cfi_restore 83
 228              		.cfi_restore 80
ARM GAS  C:\msys64\tmp\cckY1pdn.s 			page 5


 229              		.cfi_restore 81
 230              		.cfi_def_cfa_offset 0
 231              	.LVL27:
 232 0122 7047     		bx	lr
 233              	.L46:
 234              		.align	2
 235              	.L45:
 236 0124 00000000 		.word	.LANCHOR0
 237 0128 0AD7233C 		.word	1008981770
 238 012c DD824647 		.word	1195803357
 239 0130 EDB21C46 		.word	1176285933
 240 0134 BE81D947 		.word	1205436862
 241 0138 ABE90648 		.word	1208412587
 242 013c D54CD047 		.word	1204833493
 243 0140 F7364F47 		.word	1196373751
 244 0144 E7F78446 		.word	1183119335
 245 0148 57115645 		.word	1163268439
 246 014c 9C22CA43 		.word	1137320604
 247 0150 C980C141 		.word	1103200457
 248 0154 45F72B3F 		.word	1059845957
 249 0158 965D453B 		.word	994401686
 250 015c 00000000 		.word	0
 251              		.cfi_endproc
 252              	.LFE291:
 253              		.size	_ZN7UberSaw16buildDetuneTableEv, .-_ZN7UberSaw16buildDetuneTableEv
 254              		.section	.text._ZN7UberSawC2Ev,"axG",%progbits,_ZN7UberSawC5Ev,comdat
 255              		.align	1
 256              		.weak	_ZN7UberSawC2Ev
 257              		.thumb
 258              		.thumb_func
 259              		.type	_ZN7UberSawC2Ev, %function
 260              	_ZN7UberSawC2Ev:
 261              	.LFB288:
 262              		.loc 1 104 0
 263              		.cfi_startproc
 264              		@ args = 0, pretend = 0, frame = 80
 265              		@ frame_needed = 0, uses_anonymous_args = 0
 266              	.LVL28:
 267 0000 30B5     		push	{r4, r5, lr}
 268              		.cfi_def_cfa_offset 12
 269              		.cfi_offset 4, -12
 270              		.cfi_offset 5, -8
 271              		.cfi_offset 14, -4
 272 0002 00F12402 		add	r2, r0, #36
 273 0006 0446     		mov	r4, r0
 274 0008 95B0     		sub	sp, sp, #84
 275              		.cfi_def_cfa_offset 96
 276 000a 4030     		adds	r0, r0, #64
 277              	.LVL29:
 278              	.LBB178:
 279              	.LBB179:
 280              	.LBB180:
 281              		.loc 1 98 0
 282 000c 0021     		movs	r1, #0
 283              	.LVL30:
 284              	.L48:
 285 000e 42F8041B 		str	r1, [r2], #4	@ float
ARM GAS  C:\msys64\tmp\cckY1pdn.s 			page 6


 286              		.loc 1 97 0
 287 0012 8242     		cmp	r2, r0
 288              		.loc 1 99 0
 289 0014 42F8281C 		str	r1, [r2, #-40]	@ float
 290 0018 4FF00003 		mov	r3, #0
 291              		.loc 1 97 0
 292 001c F7D1     		bne	.L48
 293              	.LVL31:
 294              	.LBE180:
 295              	.LBE179:
 296              	.LBB181:
 297              	.LBB182:
 298              	.LBB183:
 299              	.LBB184:
 300              		.file 3 "C:/msys64/home/logue-sdk/platform/nutekt-digital/inc/dsp/biquad.hpp"
 301              		.loc 3 77 0
 302 001e E366     		str	r3, [r4, #108]	@ float
 303 0020 2367     		str	r3, [r4, #112]	@ float
 304 0022 6367     		str	r3, [r4, #116]	@ float
 305 0024 A367     		str	r3, [r4, #120]	@ float
 306 0026 E367     		str	r3, [r4, #124]	@ float
 307              	.LVL32:
 308              	.LBE184:
 309              	.LBE183:
 310              		.loc 3 344 0
 311 0028 C4F88030 		str	r3, [r4, #128]	@ float
 312 002c C4F88430 		str	r3, [r4, #132]	@ float
 313              	.LVL33:
 314 0030 09AA     		add	r2, sp, #36
 315 0032 10A9     		add	r1, sp, #64
 316              	.LVL34:
 317              	.L49:
 318              	.LBE182:
 319              	.LBE181:
 320              	.LBB185:
 321              	.LBB186:
 322              		.loc 1 98 0
 323 0034 42F8043B 		str	r3, [r2], #4	@ float
 324              		.loc 1 97 0
 325 0038 9142     		cmp	r1, r2
 326              		.loc 1 98 0
 327 003a 4FF00005 		mov	r5, #0
 328              		.loc 1 99 0
 329 003e 42F8283C 		str	r3, [r2, #-40]	@ float
 330              		.loc 1 97 0
 331 0042 F7D1     		bne	.L49
 332              	.LVL35:
 333              	.LBE186:
 334              	.LBE185:
 335              		.loc 1 105 0
 336 0044 5022     		movs	r2, #80
 337 0046 6946     		mov	r1, sp
 338 0048 2046     		mov	r0, r4
 339 004a 0795     		str	r5, [sp, #28]	@ float
 340 004c 0895     		str	r5, [sp, #32]	@ float
 341 004e 1095     		str	r5, [sp, #64]	@ float
 342 0050 1195     		str	r5, [sp, #68]	@ float
ARM GAS  C:\msys64\tmp\cckY1pdn.s 			page 7


 343 0052 1295     		str	r5, [sp, #72]	@ float
 344 0054 1395     		str	r5, [sp, #76]	@ float
 345 0056 FFF7FEFF 		bl	memcpy
 346              	.LVL36:
 347              		.loc 1 106 0
 348 005a 4FF08043 		mov	r3, #1073741824
 349              		.loc 1 107 0
 350 005e 2046     		mov	r0, r4
 351              		.loc 1 106 0
 352 0060 2565     		str	r5, [r4, #80]	@ float
 353 0062 6565     		str	r5, [r4, #84]	@ float
 354 0064 A565     		str	r5, [r4, #88]	@ float
 355 0066 E565     		str	r5, [r4, #92]	@ float
 356 0068 2566     		str	r5, [r4, #96]	@ float
 357 006a 6566     		str	r5, [r4, #100]	@ float
 358 006c A366     		str	r3, [r4, #104]	@ float
 359              		.loc 1 107 0
 360 006e FFF7FEFF 		bl	_ZN7UberSaw16buildDetuneTableEv
 361              	.LVL37:
 362              	.LBE178:
 363              		.loc 1 108 0
 364 0072 2046     		mov	r0, r4
 365 0074 15B0     		add	sp, sp, #84
 366              		.cfi_def_cfa_offset 12
 367              		@ sp needed
 368 0076 30BD     		pop	{r4, r5, pc}
 369              		.cfi_endproc
 370              	.LFE288:
 371              		.size	_ZN7UberSawC2Ev, .-_ZN7UberSawC2Ev
 372              		.weak	_ZN7UberSawC1Ev
 373              		.thumb_set _ZN7UberSawC1Ev,_ZN7UberSawC2Ev
 374              		.text
 375              		.align	1
 376              		.global	_hook_init
 377              		.thumb
 378              		.thumb_func
 379              		.type	_hook_init, %function
 380              	_hook_init:
 381              	.LFB292:
 382              		.file 4 "ubersaw_v1.1.cpp"
 383              		.loc 4 13 0
 384              		.cfi_startproc
 385              		@ args = 0, pretend = 0, frame = 0
 386              		@ frame_needed = 0, uses_anonymous_args = 0
 387              		@ link register save eliminated.
 388              	.LVL38:
 389 0000 7047     		bx	lr
 390              		.cfi_endproc
 391              	.LFE292:
 392              		.size	_hook_init, .-_hook_init
 393              		.align	1
 394              		.global	_hook_cycle
 395              		.thumb
 396              		.thumb_func
 397              		.type	_hook_cycle, %function
 398              	_hook_cycle:
 399              	.LFB293:
ARM GAS  C:\msys64\tmp\cckY1pdn.s 			page 8


 400              		.loc 4 18 0
 401              		.cfi_startproc
 402              		@ args = 0, pretend = 0, frame = 32
 403              		@ frame_needed = 0, uses_anonymous_args = 0
 404              	.LVL39:
 405              		.loc 4 18 0
 406 0002 2DE9F047 		push	{r4, r5, r6, r7, r8, r9, r10, lr}
 407              		.cfi_def_cfa_offset 32
 408              		.cfi_offset 4, -32
 409              		.cfi_offset 5, -28
 410              		.cfi_offset 6, -24
 411              		.cfi_offset 7, -20
 412              		.cfi_offset 8, -16
 413              		.cfi_offset 9, -12
 414              		.cfi_offset 10, -8
 415              		.cfi_offset 14, -4
 416              		.loc 4 35 0
 417 0006 8488     		ldrh	r4, [r0, #4]
 418              	.LBB247:
 419              	.LBB248:
 420              	.LBB249:
 421              	.LBB250:
 422              		.loc 2 826 0
 423 0008 DFED6D7A 		vldr.32	s15, .L92
 424              	.LBE250:
 425              	.LBE249:
 426              		.file 5 "C:/msys64/home/logue-sdk/platform/nutekt-digital/inc/osc_api.h"
 427              		.loc 5 130 0
 428 000c 9FED6D4A 		vldr.32	s8, .L92+4
 429              	.LBE248:
 430              	.LBE247:
 431              	.LBB283:
 432              	.LBB284:
 433              	.LBB285:
 434              	.LBB286:
 435              		.loc 1 151 0
 436 0010 9FED6D6A 		vldr.32	s12, .L92+8
 437              	.LBE286:
 438              	.LBE285:
 439              	.LBE284:
 440              	.LBE283:
 441              		.loc 4 35 0
 442 0014 2312     		asrs	r3, r4, #8
 443              	.LVL40:
 444              	.LBB302:
 445              	.LBB277:
 446              	.LBB256:
 447              	.LBB257:
 448              		.loc 5 115 0
 449 0016 962B     		cmp	r3, #150
 450 0018 D8BF     		it	le
 451 001a 1D46     		movle	r5, r3
 452              	.LBE257:
 453              	.LBE256:
 454              	.LBE277:
 455              	.LBE302:
 456              		.loc 4 43 0
ARM GAS  C:\msys64\tmp\cckY1pdn.s 			page 9


 457 001c E4B2     		uxtb	r4, r4
 458              	.LBB303:
 459              	.LBB278:
 460              		.loc 5 126 0
 461 001e 03F10103 		add	r3, r3, #1
 462              	.LVL41:
 463 0022 DBB2     		uxtb	r3, r3
 464              	.LVL42:
 465              	.LBE278:
 466              	.LBE303:
 467              		.loc 4 43 0
 468 0024 06EE904A 		vmov	s13, r4	@ int
 469              	.LVL43:
 470              	.LBB304:
 471              	.LBB279:
 472              	.LBB261:
 473              	.LBB258:
 474              		.loc 5 115 0
 475 0028 C8BF     		it	gt
 476 002a 9725     		movgt	r5, #151
 477              	.LVL44:
 478 002c 674C     		ldr	r4, .L92+12
 479              	.LVL45:
 480              	.LBE258:
 481              	.LBE261:
 482              	.LBB262:
 483              	.LBB263:
 484 002e 962B     		cmp	r3, #150
 485 0030 88BF     		it	hi
 486 0032 9723     		movhi	r3, #151
 487              	.LBE263:
 488              	.LBE262:
 489              	.LBB265:
 490              	.LBB251:
 491              		.loc 2 826 0
 492 0034 F8EEE66A 		vcvt.f32.s32	s13, s13
 493              	.LVL46:
 494              	.LBE251:
 495              	.LBE265:
 496              	.LBB266:
 497              	.LBB259:
 498              		.loc 5 115 0
 499 0038 04EB8505 		add	r5, r4, r5, lsl #2
 500              	.LBE259:
 501              	.LBE266:
 502              	.LBB267:
 503              	.LBB264:
 504 003c 04EB8303 		add	r3, r4, r3, lsl #2
 505              	.LBE264:
 506              	.LBE267:
 507              	.LBB268:
 508              	.LBB260:
 509 0040 95ED007A 		vldr.32	s14, [r5]
 510              	.LVL47:
 511              	.LBE260:
 512              	.LBE268:
 513              	.LBB269:
ARM GAS  C:\msys64\tmp\cckY1pdn.s 			page 10


 514              	.LBB252:
 515              		.loc 2 826 0
 516 0044 66EEA76A 		vmul.f32	s13, s13, s15
 517 0048 D3ED007A 		vldr.32	s15, [r3]
 518              	.LBE252:
 519              	.LBE269:
 520              	.LBE279:
 521              	.LBE304:
 522              	.LBB305:
 523              	.LBB296:
 524              		.loc 1 116 0
 525 004c 604B     		ldr	r3, .L92+16
 526              	.LBE296:
 527              	.LBE305:
 528              	.LBB306:
 529              	.LBB280:
 530              	.LBB270:
 531              	.LBB253:
 532              		.loc 2 826 0
 533 004e 77EEC77A 		vsub.f32	s15, s15, s14
 534              	.LBE253:
 535              	.LBE270:
 536              	.LBE280:
 537              	.LBE306:
 538              		.loc 4 18 0
 539 0052 2DED0E8B 		vpush.64	{d8, d9, d10, d11, d12, d13, d14}
 540              		.cfi_def_cfa_offset 88
 541              		.cfi_offset 80, -88
 542              		.cfi_offset 81, -84
 543              		.cfi_offset 82, -80
 544              		.cfi_offset 83, -76
 545              		.cfi_offset 84, -72
 546              		.cfi_offset 85, -68
 547              		.cfi_offset 86, -64
 548              		.cfi_offset 87, -60
 549              		.cfi_offset 88, -56
 550              		.cfi_offset 89, -52
 551              		.cfi_offset 90, -48
 552              		.cfi_offset 91, -44
 553              		.cfi_offset 92, -40
 554              		.cfi_offset 93, -36
 555              	.LBB307:
 556              	.LBB281:
 557              	.LBB271:
 558              	.LBB254:
 559              		.loc 2 826 0
 560 0056 A6EEA77A 		vfma.f32	s14, s13, s15
 561 005a 03F5CA76 		add	r6, r3, #404
 562              	.LBE254:
 563              	.LBE271:
 564              	.LBE281:
 565              	.LBE307:
 566              		.loc 4 18 0
 567 005e 88B0     		sub	sp, sp, #32
 568              		.cfi_def_cfa_offset 120
 569              	.LBB308:
 570              	.LBB297:
ARM GAS  C:\msys64\tmp\cckY1pdn.s 			page 11


 571              		.loc 1 122 0
 572 0060 93ED7C5A 		vldr.32	s10, [r3, #496]
 573              	.LBE297:
 574              	.LBE308:
 575              	.LBB309:
 576              	.LBB282:
 577              	.LBB272:
 578              	.LBB255:
 579              		.loc 2 826 0
 580 0064 F0EE477A 		vmov.f32	s15, s14
 581              	.LVL48:
 582              	.LBE255:
 583              	.LBE272:
 584              	.LBB273:
 585              	.LBB274:
 586              	.LBB275:
 587              	.LBB276:
 588              		.loc 2 193 0
 589 0068 9FED5A7A 		vldr.32	s14, .L92+20
 590              	.LVL49:
 591 006c F4EEC77A 		vcmpe.f32	s15, s14
 592 0070 F1EE10FA 		vmrs	APSR_nzcv, FPSCR
 593 0074 B8BF     		it	lt
 594 0076 B0EE677A 		vmovlt.f32	s14, s15
 595              	.LVL50:
 596              	.LBE276:
 597              	.LBE275:
 598              	.LBE274:
 599              	.LBE273:
 600              		.loc 5 130 0
 601 007a 67EE047A 		vmul.f32	s15, s14, s8
 602              	.LVL51:
 603              	.LBE282:
 604              	.LBE309:
 605              	.LBB310:
 606              	.LBB298:
 607              		.loc 1 116 0
 608 007e 93ED7E7A 		vldr.32	s14, [r3, #504]
 609              	.LVL52:
 610              		.loc 1 128 0
 611 0082 C3ED6E7A 		vstr.32	s15, [r3, #440]
 612              	.LVL53:
 613              		.loc 1 134 0
 614 0086 F7EE006A 		vmov.f32	s13, #1.0e+0
 615              	.LBB289:
 616              	.LBB287:
 617              		.loc 1 151 0
 618 008a 27EE066A 		vmul.f32	s12, s14, s12
 619 008e 03F5D675 		add	r5, r3, #428
 620 0092 3446     		mov	r4, r6
 621 0094 F0EE664A 		vmov.f32	s9, s13
 622              		.loc 1 141 0
 623 0098 B0EE083A 		vmov.f32	s6, #3.0e+0
 624              		.loc 1 151 0
 625 009c F1EE453A 		vneg.f32	s7, s10
 626              	.LVL54:
 627              	.L57:
ARM GAS  C:\msys64\tmp\cckY1pdn.s 			page 12


 628              		.loc 1 141 0
 629 00a0 C6EE835A 		vdiv.f32	s11, s13, s6
 630              	.LVL55:
 631 00a4 0834     		adds	r4, r4, #8
 632              		.loc 1 151 0
 633 00a6 B0EE644A 		vmov.f32	s8, s9
 634 00aa A3EEA54A 		vfma.f32	s8, s7, s11
 635 00ae F0EE462A 		vmov.f32	s5, s12
 636 00b2 E7EE842A 		vfma.f32	s5, s15, s8
 637              		.loc 1 153 0
 638 00b6 B0EE644A 		vmov.f32	s8, s9
 639 00ba A5EE254A 		vfma.f32	s8, s10, s11
 640              		.loc 1 151 0
 641 00be C4ED082A 		vstr.32	s5, [r4, #32]
 642              		.loc 1 153 0
 643 00c2 F0EE445A 		vmov.f32	s11, s8
 644              	.LVL56:
 645 00c6 B0EE464A 		vmov.f32	s8, s12
 646 00ca A7EEA54A 		vfma.f32	s8, s15, s11
 647              		.loc 1 151 0
 648 00ce B7EE002A 		vmov.f32	s4, #1.0e+0
 649              		.loc 1 153 0
 650 00d2 84ED094A 		vstr.32	s8, [r4, #36]
 651              	.LBE287:
 652              		.loc 1 135 0
 653 00d6 A542     		cmp	r5, r4
 654              	.LBB288:
 655              		.loc 1 154 0
 656 00d8 76EEA46A 		vadd.f32	s13, s13, s9
 657              	.LVL57:
 658              	.LBE288:
 659              		.loc 1 135 0
 660 00dc E0D1     		bne	.L57
 661              	.LBE289:
 662              		.loc 1 161 0
 663 00de D3ED7F6A 		vldr.32	s13, [r3, #508]
 664              	.LVL58:
 665              		.loc 1 162 0
 666 00e2 9FED3D5A 		vldr.32	s10, .L92+24
 667              	.LVL59:
 668              	.LBB290:
 669              	.LBB291:
 670              		.loc 3 116 0
 671 00e6 DFED453A 		vldr.32	s7, .L92+60
 672 00ea DFF804E1 		ldr	lr, .L92+48
 673 00ee C3ED813A 		vstr.32	s7, [r3, #516]
 674              	.LBE291:
 675              	.LBE290:
 676              		.loc 1 163 0
 677 00f2 82EE264A 		vdiv.f32	s8, s4, s13
 678 00f6 01AF     		add	r7, sp, #4
 679              	.LBE298:
 680              	.LBE310:
 681              		.loc 4 57 0
 682 00f8 3C46     		mov	r4, r7
 683              	.LBB311:
 684              	.LBB299:
ARM GAS  C:\msys64\tmp\cckY1pdn.s 			page 13


 685              		.loc 1 162 0
 686 00fa 27EE055A 		vmul.f32	s10, s14, s10
 687              		.loc 1 163 0
 688 00fe 24EE274A 		vmul.f32	s8, s8, s15
 689              		.loc 1 162 0
 690 0102 F0EE450A 		vmov.f32	s1, s10
 691 0106 E7EEA60A 		vfma.f32	s1, s15, s13
 692              	.LBE299:
 693              	.LBE311:
 694              		.loc 4 57 0
 695 010a D0ED007A 		vldr.32	s15, [r0]	@ int
 696              	.LVL60:
 697              	.LBB312:
 698              	.LBB300:
 699              		.loc 1 162 0
 700 010e C3ED750A 		vstr.32	s1, [r3, #468]
 701              		.loc 1 163 0
 702 0112 35EE045A 		vadd.f32	s10, s10, s8
 703              	.LBB294:
 704              	.LBB292:
 705              		.loc 3 114 0
 706 0116 32EE442A 		vsub.f32	s4, s4, s8
 707              	.LBE292:
 708              	.LBE294:
 709              	.LBE300:
 710              	.LBE312:
 711              		.loc 4 57 0
 712 011a FAEEE07A 		vcvt.f32.s32	s15, s15, #31
 713              	.LBB313:
 714              	.LBB301:
 715              		.loc 1 163 0
 716 011e 83ED765A 		vstr.32	s10, [r3, #472]
 717              	.LVL61:
 718              	.LBB295:
 719              	.LBB293:
 720              		.loc 3 114 0
 721 0122 83ED802A 		vstr.32	s4, [r3, #512]
 722              		.loc 3 115 0
 723 0126 83ED834A 		vstr.32	s8, [r3, #524]
 724              		.loc 3 116 0
 725 012a C3ED823A 		vstr.32	s7, [r3, #520]
 726 012e C3ED843A 		vstr.32	s7, [r3, #528]
 727              	.LVL62:
 728              	.LBE293:
 729              	.LBE295:
 730              	.LBE301:
 731              	.LBE313:
 732              		.loc 4 57 0
 733 0132 C3ED777A 		vstr.32	s15, [r3, #476]
 734              	.LVL63:
 735 0136 AEF11C00 		sub	r0, lr, #28
 736              	.LVL64:
 737              	.L58:
 738              	.LBB314:
 739              		.loc 4 71 0 discriminator 2
 740 013a 50F8045B 		ldr	r5, [r0], #4	@ float
 741 013e 44F8045B 		str	r5, [r4], #4	@ float
ARM GAS  C:\msys64\tmp\cckY1pdn.s 			page 14


 742              		.loc 4 70 0 discriminator 2
 743 0142 8645     		cmp	lr, r0
 744 0144 F9D1     		bne	.L58
 745              	.LBE314:
 746              		.loc 4 91 0
 747 0146 07EE102A 		vmov	s14, r2	@ int
 748              		.loc 4 83 0
 749 014a 93ED783A 		vldr.32	s6, [r3, #480]
 750              	.LBB315:
 751              	.LBB316:
 752              	.LBB317:
 753              	.LBB318:
 754              		.loc 5 211 0
 755 014e DFED238A 		vldr.32	s17, .L92+28
 756              		.loc 5 222 0
 757 0152 DFF8A0C0 		ldr	ip, .L92+52
 758              	.LBE318:
 759              	.LBE317:
 760              	.LBE316:
 761              	.LBE315:
 762              		.loc 4 74 0
 763 0156 D3ED6C5A 		vldr.32	s11, [r3, #432]
 764              	.LVL65:
 765              		.loc 4 75 0
 766 015a 93ED6D6A 		vldr.32	s12, [r3, #436]
 767              	.LVL66:
 768              		.loc 4 99 0
 769 015e 93ED790A 		vldr.32	s0, [r3, #484]
 770              		.loc 4 100 0
 771 0162 93ED7A8A 		vldr.32	s16, [r3, #488]
 772              		.loc 4 101 0
 773 0166 D3ED7B1A 		vldr.32	s3, [r3, #492]
 774              	.LBB381:
 775              	.LBB379:
 776              		.loc 4 126 0
 777 016a D3ED7D9A 		vldr.32	s19, [r3, #500]
 778 016e D3ED852A 		vldr.32	s5, [r3, #532]
 779              		.loc 4 134 0
 780 0172 9FED1BAA 		vldr.32	s20, .L92+32
 781 0176 DFED1BAA 		vldr.32	s21, .L92+36
 782              		.loc 4 135 0
 783 017a 9FED1BBA 		vldr.32	s22, .L92+40
 784 017e DFED1BBA 		vldr.32	s23, .L92+44
 785              	.LBE379:
 786              	.LBE381:
 787              		.loc 4 91 0
 788 0182 77EEC37A 		vsub.f32	s15, s15, s6
 789 0186 B8EE477A 		vcvt.f32.u32	s14, s14
 790              		.loc 4 110 0
 791 018a 01EB8202 		add	r2, r1, r2, lsl #2
 792              	.LVL67:
 793              		.loc 4 91 0
 794 018e 87EE879A 		vdiv.f32	s18, s15, s14
 795              	.LVL68:
 796 0192 6546     		mov	r5, ip
 797 0194 B0EE681A 		vmov.f32	s2, s17
 798              	.LVL69:
ARM GAS  C:\msys64\tmp\cckY1pdn.s 			page 15


 799              	.L74:
 800              	.LBB382:
 801              		.loc 4 118 0
 802 0198 9142     		cmp	r1, r2
 803 019a 00F08381 		beq	.L59
 804              	.LBB380:
 805              		.loc 4 126 0
 806 019e 33EE297A 		vadd.f32	s14, s6, s19
 807              	.LVL70:
 808              	.LBB323:
 809              	.LBB324:
 810              	.LBB325:
 811              	.LBB326:
 812              		.loc 2 193 0
 813 01a2 B5EEC07A 		vcmpe.f32	s14, #0
 814 01a6 F1EE10FA 		vmrs	APSR_nzcv, FPSCR
 815 01aa 2BDB     		blt	.L90
 816              	.LVL71:
 817 01ac B4EEE47A 		vcmpe.f32	s14, s9
 818 01b0 F1EE10FA 		vmrs	APSR_nzcv, FPSCR
 819 01b4 F7EE007A 		vmov.f32	s15, #1.0e+0
 820 01b8 B8BF     		it	lt
 821 01ba F0EE477A 		vmovlt.f32	s15, s14
 822 01be 23E0     		b	.L60
 823              	.L93:
 824              		.align	2
 825              	.L92:
 826 01c0 8180803B 		.word	998277249
 827 01c4 3EC3AE37 		.word	934200126
 828 01c8 3EC3AE36 		.word	917422910
 829 01cc 00000000 		.word	midi_to_hz_lut_f
 830 01d0 00000000 		.word	.LANCHOR0
 831 01d4 49FFB846 		.word	1186529097
 832 01d8 17B75136 		.word	911324951
 833 01dc 00008043 		.word	1132462080
 834 01e0 A9BC0DBF 		.word	-1089618775
 835 01e4 19737F3F 		.word	1065317145
 836 01e8 FAD53CBF 		.word	-1086532102
 837 01ec 645DA43F 		.word	1067736420
 838 01f0 B0010000 		.word	.LANCHOR0+432
 839 01f4 00000000 		.word	wt_saw_lut_f
 840 01f8 452FE33E 		.word	1055076165
 841 01fc 00000000 		.word	0
 842 0200 ABAA2A3E 		.word	1042983595
 843              	.LVL72:
 844              	.L90:
 845 0204 5FED037A 		vldr.32	s15, .L92+60
 846              	.LVL73:
 847              	.L60:
 848              	.LBE326:
 849              	.LBE325:
 850              	.LBE324:
 851              	.LBE323:
 852              		.loc 4 135 0
 853 0208 27EE8B7A 		vmul.f32	s14, s15, s22
 854 020c 67EEAB6A 		vmul.f32	s13, s15, s23
 855              		.loc 4 134 0
ARM GAS  C:\msys64\tmp\cckY1pdn.s 			page 16


 856 0210 B0EE6ADA 		vmov.f32	s26, s21
 857              		.loc 4 135 0
 858 0214 E7EE276A 		vfma.f32	s13, s14, s15
 859 0218 0DF10809 		add	r9, sp, #8
 860              		.loc 4 134 0
 861 021c A7EE8ADA 		vfma.f32	s26, s15, s20
 862              	.LVL74:
 863              		.loc 4 147 0
 864 0220 9DED017A 		vldr.32	s14, [sp, #4]
 865              		.loc 4 135 0
 866 0224 5FED0C7A 		vldr.32	s15, .L92+56
 867 0228 76EEA76A 		vadd.f32	s13, s13, s15
 868              	.LVL75:
 869              	.LBB327:
 870              	.LBB319:
 871              		.loc 5 211 0
 872 022c FCEEC77A 		vcvt.u32.f32	s15, s14
 873 0230 F8EE677A 		vcvt.f32.u32	s15, s15
 874 0234 77EE677A 		vsub.f32	s15, s14, s15
 875 0238 67EEA87A 		vmul.f32	s15, s15, s17
 876              	.LVL76:
 877              		.loc 5 212 0
 878 023c BCEEE77A 		vcvt.u32.f32	s14, s15
 879              	.LVL77:
 880 0240 17EE104A 		vmov	r4, s14	@ int
 881              	.LVL78:
 882              		.loc 5 216 0
 883 0244 7F2C     		cmp	r4, #127
 884              		.loc 5 217 0
 885 0246 84BF     		itt	hi
 886 0248 04F07F00 		andhi	r0, r4, #127
 887 024c C0F18008 		rsbhi	r8, r0, #128
 888              	.LBE319:
 889              	.LBE327:
 890              		.loc 4 147 0
 891 0250 B8EE477A 		vcvt.f32.u32	s14, s14
 892              	.LBB328:
 893              	.LBB320:
 894              		.loc 5 214 0
 895 0254 9ABF     		itte	ls
 896 0256 601C     		addls	r0, r4, #1
 897 0258 A046     		movls	r8, r4
 898              	.LVL79:
 899              		.loc 5 218 0
 900 025a C0F17F00 		rsbhi	r0, r0, #127
 901              	.LVL80:
 902              		.loc 5 222 0
 903 025e 0CEB8808 		add	r8, ip, r8, lsl #2
 904              	.LVL81:
 905 0262 0CEB8000 		add	r0, ip, r0, lsl #2
 906              	.LVL82:
 907 0266 D8ED00CA 		vldr.32	s25, [r8]
 908              	.LBE320:
 909              	.LBE328:
 910              		.loc 4 147 0
 911 026a 77EEC77A 		vsub.f32	s15, s15, s14
 912              	.LVL83:
ARM GAS  C:\msys64\tmp\cckY1pdn.s 			page 17


 913 026e 90ED007A 		vldr.32	s14, [r0]
 914 0272 37EE6C7A 		vsub.f32	s14, s14, s25
 915              	.LBB329:
 916              	.LBB321:
 917              		.loc 5 215 0
 918 0276 98BF     		it	ls
 919 0278 B7EE00CA 		vmovls.f32	s24, #1.0e+0
 920              	.LBE321:
 921              	.LBE329:
 922              		.loc 4 147 0
 923 027c E7EE87CA 		vfma.f32	s25, s15, s14
 924 0280 0DF12008 		add	r8, sp, #32
 925              	.LBB330:
 926              	.LBB322:
 927              		.loc 5 219 0
 928 0284 88BF     		it	hi
 929 0286 BFEE00CA 		vmovhi.f32	s24, #-1.0e+0
 930              	.LVL84:
 931              	.LBE322:
 932              	.LBE330:
 933              		.loc 4 147 0
 934 028a 6CEE8CCA 		vmul.f32	s25, s25, s24
 935 028e 2CEE8DCA 		vmul.f32	s24, s25, s26
 936              	.LVL85:
 937              		.loc 4 159 0
 938 0292 1FED26DA 		vldr.32	s26, .L92+60
 939              	.LVL86:
 940              	.L66:
 941              	.LBB331:
 942              		.loc 4 161 0 discriminator 2
 943 0296 B9EC017A 		vldmia.32	r9!, {s14}
 944              	.LVL87:
 945              	.LBB332:
 946              	.LBB333:
 947              		.loc 5 211 0 discriminator 2
 948 029a FCEEC77A 		vcvt.u32.f32	s15, s14
 949 029e F8EE677A 		vcvt.f32.u32	s15, s15
 950 02a2 77EE677A 		vsub.f32	s15, s14, s15
 951 02a6 67EE817A 		vmul.f32	s15, s15, s2
 952              	.LVL88:
 953              		.loc 5 212 0 discriminator 2
 954 02aa BCEEE77A 		vcvt.u32.f32	s14, s15
 955              	.LVL89:
 956 02ae 17EE104A 		vmov	r4, s14	@ int
 957              	.LVL90:
 958              		.loc 5 216 0 discriminator 2
 959 02b2 7F2C     		cmp	r4, #127
 960              		.loc 5 217 0 discriminator 2
 961 02b4 87BF     		ittee	hi
 962 02b6 04F07F00 		andhi	r0, r4, #127
 963 02ba C0F1800A 		rsbhi	r10, r0, #128
 964              		.loc 5 214 0 discriminator 2
 965 02be 601C     		addls	r0, r4, #1
 966 02c0 A246     		movls	r10, r4
 967              	.LVL91:
 968              		.loc 5 218 0 discriminator 2
 969 02c2 88BF     		it	hi
ARM GAS  C:\msys64\tmp\cckY1pdn.s 			page 18


 970 02c4 C0F17F00 		rsbhi	r0, r0, #127
 971              	.LVL92:
 972              	.LBE333:
 973              	.LBE332:
 974              		.loc 4 161 0 discriminator 2
 975 02c8 B8EE477A 		vcvt.f32.u32	s14, s14
 976              	.LBB337:
 977              	.LBB334:
 978              		.loc 5 222 0 discriminator 2
 979 02cc 05EB8A0A 		add	r10, r5, r10, lsl #2
 980              	.LVL93:
 981 02d0 05EB8000 		add	r0, r5, r0, lsl #2
 982              	.LVL94:
 983 02d4 DAED00CA 		vldr.32	s25, [r10]
 984              	.LBE334:
 985              	.LBE337:
 986              		.loc 4 161 0 discriminator 2
 987 02d8 77EEC77A 		vsub.f32	s15, s15, s14
 988              	.LVL95:
 989 02dc 90ED007A 		vldr.32	s14, [r0]
 990 02e0 37EE6C7A 		vsub.f32	s14, s14, s25
 991              	.LBB338:
 992              	.LBB335:
 993              		.loc 5 215 0 discriminator 2
 994 02e4 98BF     		it	ls
 995 02e6 F7EE00DA 		vmovls.f32	s27, #1.0e+0
 996              	.LBE335:
 997              	.LBE338:
 998              		.loc 4 161 0 discriminator 2
 999 02ea E7EE87CA 		vfma.f32	s25, s15, s14
 1000              	.LBB339:
 1001              	.LBB336:
 1002              		.loc 5 219 0 discriminator 2
 1003 02ee 88BF     		it	hi
 1004 02f0 FFEE00DA 		vmovhi.f32	s27, #-1.0e+0
 1005              	.LVL96:
 1006              	.LBE336:
 1007              	.LBE339:
 1008              		.loc 4 161 0 discriminator 2
 1009 02f4 6CEEADCA 		vmul.f32	s25, s25, s27
 1010              		.loc 4 160 0 discriminator 2
 1011 02f8 C845     		cmp	r8, r9
 1012              		.loc 4 161 0 discriminator 2
 1013 02fa A6EEACDA 		vfma.f32	s26, s13, s25
 1014              	.LVL97:
 1015              		.loc 4 160 0 discriminator 2
 1016 02fe CAD1     		bne	.L66
 1017              	.LVL98:
 1018              	.LBE331:
 1019              		.loc 4 165 0
 1020 0300 5FED417A 		vldr.32	s15, .L92+64
 1021 0304 ADEE27CA 		vfma.f32	s24, s26, s15
 1022              	.LVL99:
 1023              	.LBB340:
 1024              	.LBB341:
 1025              		.loc 5 211 0
 1026 0308 FCEEE57A 		vcvt.u32.f32	s15, s11
ARM GAS  C:\msys64\tmp\cckY1pdn.s 			page 19


 1027 030c FFEE00CA 		vmov.f32	s25, #-1.0e+0
 1028 0310 F8EE677A 		vcvt.f32.u32	s15, s15
 1029 0314 75EEE77A 		vsub.f32	s15, s11, s15
 1030 0318 67EE817A 		vmul.f32	s15, s15, s2
 1031              	.LVL100:
 1032              		.loc 5 212 0
 1033 031c BCEEE77A 		vcvt.u32.f32	s14, s15
 1034 0320 17EE104A 		vmov	r4, s14	@ int
 1035              	.LVL101:
 1036              		.loc 5 216 0
 1037 0324 7F2C     		cmp	r4, #127
 1038              	.LBE341:
 1039              	.LBE340:
 1040              		.loc 4 176 0
 1041 0326 06EE904A 		vmov	s13, r4	@ int
 1042              	.LVL102:
 1043              	.LBB346:
 1044              	.LBB342:
 1045              		.loc 5 217 0
 1046 032a 87BF     		ittee	hi
 1047 032c 04F07F00 		andhi	r0, r4, #127
 1048 0330 C0F18009 		rsbhi	r9, r0, #128
 1049              	.LVL103:
 1050              		.loc 5 214 0
 1051 0334 601C     		addls	r0, r4, #1
 1052 0336 A146     		movls	r9, r4
 1053              	.LVL104:
 1054              		.loc 5 218 0
 1055 0338 88BF     		it	hi
 1056 033a C0F17F00 		rsbhi	r0, r0, #127
 1057              	.LVL105:
 1058              	.LBE342:
 1059              	.LBE346:
 1060              		.loc 4 176 0
 1061 033e F8EE666A 		vcvt.f32.u32	s13, s13
 1062              	.LBB347:
 1063              	.LBB343:
 1064              		.loc 5 222 0
 1065 0342 05EB8000 		add	r0, r5, r0, lsl #2
 1066              	.LVL106:
 1067 0346 05EB8909 		add	r9, r5, r9, lsl #2
 1068              	.LVL107:
 1069 034a 99ED007A 		vldr.32	s14, [r9]
 1070              	.LBE343:
 1071              	.LBE347:
 1072              		.loc 4 176 0
 1073 034e 77EEE67A 		vsub.f32	s15, s15, s13
 1074              	.LVL108:
 1075 0352 D0ED006A 		vldr.32	s13, [r0]
 1076 0356 76EEC76A 		vsub.f32	s13, s13, s14
 1077              	.LBB348:
 1078              	.LBB344:
 1079              		.loc 5 215 0
 1080 035a 98BF     		it	ls
 1081 035c B7EE00DA 		vmovls.f32	s26, #1.0e+0
 1082              	.LVL109:
 1083              	.LBE344:
ARM GAS  C:\msys64\tmp\cckY1pdn.s 			page 20


 1084              	.LBE348:
 1085              		.loc 4 176 0
 1086 0360 A7EEA67A 		vfma.f32	s14, s15, s13
 1087              	.LBB349:
 1088              	.LBB345:
 1089              		.loc 5 219 0
 1090 0364 88BF     		it	hi
 1091 0366 B0EE6CDA 		vmovhi.f32	s26, s25
 1092              	.LVL110:
 1093              	.LBE345:
 1094              	.LBE349:
 1095              		.loc 4 176 0
 1096 036a 27EE0D7A 		vmul.f32	s14, s14, s26
 1097 036e F6EE006A 		vmov.f32	s13, #5.0e-1
 1098 0372 27EE267A 		vmul.f32	s14, s14, s13
 1099              	.LVL111:
 1100              		.loc 4 184 0
 1101 0376 74EEC07A 		vsub.f32	s15, s9, s0
 1102 037a 20EE07DA 		vmul.f32	s26, s0, s14
 1103 037e B0EE66EA 		vmov.f32	s28, s13
 1104 0382 ACEE27DA 		vfma.f32	s26, s24, s15
 1105              	.LVL112:
 1106              	.LBB350:
 1107              	.LBB351:
 1108              		.loc 5 211 0
 1109 0386 BCEEC6CA 		vcvt.u32.f32	s24, s12
 1110 038a B8EE4CCA 		vcvt.f32.u32	s24, s24
 1111 038e 36EE4CCA 		vsub.f32	s24, s12, s24
 1112 0392 2CEE01CA 		vmul.f32	s24, s24, s2
 1113              	.LVL113:
 1114              		.loc 5 212 0
 1115 0396 FCEECC7A 		vcvt.u32.f32	s15, s24
 1116 039a 17EE904A 		vmov	r4, s15	@ int
 1117              	.LVL114:
 1118              		.loc 5 216 0
 1119 039e 7F2C     		cmp	r4, #127
 1120              	.LBE351:
 1121              	.LBE350:
 1122              		.loc 4 195 0
 1123 03a0 0DEE904A 		vmov	s27, r4	@ int
 1124              	.LBB357:
 1125              	.LBB352:
 1126              		.loc 5 217 0
 1127 03a4 87BF     		ittee	hi
 1128 03a6 04F07F00 		andhi	r0, r4, #127
 1129 03aa C0F18009 		rsbhi	r9, r0, #128
 1130              		.loc 5 214 0
 1131 03ae 601C     		addls	r0, r4, #1
 1132 03b0 A146     		movls	r9, r4
 1133              	.LVL115:
 1134              		.loc 5 218 0
 1135 03b2 88BF     		it	hi
 1136 03b4 C0F17F00 		rsbhi	r0, r0, #127
 1137              	.LVL116:
 1138              	.LBE352:
 1139              	.LBE357:
 1140              		.loc 4 195 0
ARM GAS  C:\msys64\tmp\cckY1pdn.s 			page 21


 1141 03b8 F8EE6DDA 		vcvt.f32.u32	s27, s27
 1142              	.LBB358:
 1143              	.LBB353:
 1144              		.loc 5 222 0
 1145 03bc 05EB8909 		add	r9, r5, r9, lsl #2
 1146              	.LVL117:
 1147 03c0 05EB8000 		add	r0, r5, r0, lsl #2
 1148              	.LVL118:
 1149              	.LBE353:
 1150              	.LBE358:
 1151              		.loc 4 195 0
 1152 03c4 3CEE6DCA 		vsub.f32	s24, s24, s27
 1153              	.LVL119:
 1154              	.LBB359:
 1155              	.LBB354:
 1156              		.loc 5 222 0
 1157 03c8 D9ED007A 		vldr.32	s15, [r9]
 1158              	.LBE354:
 1159              	.LBE359:
 1160              		.loc 4 195 0
 1161 03cc D0ED00DA 		vldr.32	s27, [r0]
 1162 03d0 7DEEE7DA 		vsub.f32	s27, s27, s15
 1163              	.LBB360:
 1164              	.LBB355:
 1165              		.loc 5 215 0
 1166 03d4 98BF     		it	ls
 1167 03d6 F7EE006A 		vmovls.f32	s13, #1.0e+0
 1168              	.LBE355:
 1169              	.LBE360:
 1170              		.loc 4 195 0
 1171 03da ECEE2D7A 		vfma.f32	s15, s24, s27
 1172              	.LBB361:
 1173              	.LBB356:
 1174              		.loc 5 219 0
 1175 03de 88BF     		it	hi
 1176 03e0 FFEE006A 		vmovhi.f32	s13, #-1.0e+0
 1177              	.LVL120:
 1178              	.LBE356:
 1179              	.LBE361:
 1180              		.loc 4 195 0
 1181 03e4 67EEA67A 		vmul.f32	s15, s15, s13
 1182              		.loc 4 203 0
 1183 03e8 74EEC8DA 		vsub.f32	s27, s9, s16
 1184              		.loc 4 195 0
 1185 03ec 67EE8E6A 		vmul.f32	s13, s15, s28
 1186              	.LVL121:
 1187              		.loc 4 203 0
 1188 03f0 F7EE007A 		vmov.f32	s15, #1.0e+0
 1189 03f4 28EE26CA 		vmul.f32	s24, s16, s13
 1190 03f8 ADEE2DCA 		vfma.f32	s24, s26, s27
 1191              	.LVL122:
 1192              		.loc 4 211 0
 1193 03fc 34EEE1DA 		vsub.f32	s26, s9, s3
 1194 0400 27EE0C7A 		vmul.f32	s14, s14, s24
 1195              	.LVL123:
 1196 0404 66EE8C6A 		vmul.f32	s13, s13, s24
 1197              	.LVL124:
ARM GAS  C:\msys64\tmp\cckY1pdn.s 			page 22


 1198 0408 27EE217A 		vmul.f32	s14, s14, s3
 1199 040c ACEE0D7A 		vfma.f32	s14, s24, s26
 1200 0410 A1EEA67A 		vfma.f32	s14, s3, s13
 1201              	.LVL125:
 1202              	.LBB362:
 1203              	.LBB363:
 1204              		.loc 3 385 0
 1205 0414 F0EE626A 		vmov.f32	s13, s5
 1206 0418 E7EE026A 		vfma.f32	s13, s14, s4
 1207              	.LVL126:
 1208              		.loc 3 387 0
 1209 041c 64EE662A 		vnmul.f32	s5, s8, s13
 1210              	.LBE363:
 1211              	.LBE362:
 1212              	.LBB365:
 1213              	.LBB366:
 1214              	.LBB367:
 1215              	.LBB368:
 1216              	.LBB369:
 1217              	.LBB370:
 1218              		.loc 2 193 0
 1219 0420 F4EEEC6A 		vcmpe.f32	s13, s25
 1220 0424 F1EE10FA 		vmrs	APSR_nzcv, FPSCR
 1221              	.LVL127:
 1222              	.LBE370:
 1223              	.LBE369:
 1224              	.LBE368:
 1225              	.LBE367:
 1226              	.LBE366:
 1227              	.LBE365:
 1228              	.LBB376:
 1229              	.LBB364:
 1230              		.loc 3 387 0
 1231 0428 E7EE232A 		vfma.f32	s5, s14, s7
 1232              	.LVL128:
 1233              	.LBE364:
 1234              	.LBE376:
 1235              	.LBB377:
 1236              	.LBB375:
 1237              	.LBB374:
 1238              	.LBB373:
 1239              	.LBB372:
 1240              	.LBB371:
 1241              		.loc 2 193 0
 1242 042c 07DB     		blt	.L91
 1243              	.LVL129:
 1244 042e F4EEE76A 		vcmpe.f32	s13, s15
 1245 0432 F1EE10FA 		vmrs	APSR_nzcv, FPSCR
 1246 0436 B8BF     		it	lt
 1247 0438 F0EE667A 		vmovlt.f32	s15, s13
 1248 043c 01E0     		b	.L71
 1249              	.LVL130:
 1250              	.L91:
 1251 043e FFEE007A 		vmov.f32	s15, #-1.0e+0
 1252              	.LVL131:
 1253              	.L71:
 1254              	.LBE371:
ARM GAS  C:\msys64\tmp\cckY1pdn.s 			page 23


 1255              	.LBE372:
 1256              	.LBE373:
 1257              	.LBE374:
 1258              	.LBE375:
 1259              	.LBE377:
 1260              		.loc 4 238 0
 1261 0442 27EEA77A 		vmul.f32	s14, s15, s15
 1262 0446 F4EE006A 		vmov.f32	s13, #1.25e-1
 1263 044a 27EEC77A 		vnmul.f32	s14, s15, s14
 1264 044e 1F4C     		ldr	r4, .L94
 1265              	.LVL132:
 1266 0450 E7EE267A 		vfma.f32	s15, s14, s13
 1267 0454 3846     		mov	r0, r7
 1268              	.LVL133:
 1269 0456 FEEEE07A 		vcvt.s32.f32	s15, s15, #31
 1270 045a E1EC017A 		vstmia.32	r1!, {s15}	@ int
 1271              	.LVL134:
 1272              	.L73:
 1273              	.LBB378:
 1274              		.loc 4 247 0 discriminator 2
 1275 045e 90ED007A 		vldr.32	s14, [r0]
 1276 0462 F4EC017A 		vldmia.32	r4!, {s15}
 1277 0466 77EE877A 		vadd.f32	s15, s15, s14
 1278              		.loc 4 248 0 discriminator 2
 1279 046a BCEEE77A 		vcvt.u32.f32	s14, s15
 1280 046e B8EE477A 		vcvt.f32.u32	s14, s14
 1281 0472 77EEC77A 		vsub.f32	s15, s15, s14
 1282 0476 E0EC017A 		vstmia.32	r0!, {s15}
 1283              		.loc 4 246 0 discriminator 2
 1284 047a 8045     		cmp	r8, r0
 1285 047c EFD1     		bne	.L73
 1286              	.LBE378:
 1287              		.loc 4 257 0
 1288 047e 75EEA05A 		vadd.f32	s11, s11, s1
 1289              	.LVL135:
 1290              		.loc 4 266 0
 1291 0482 36EE056A 		vadd.f32	s12, s12, s10
 1292              	.LVL136:
 1293              		.loc 4 258 0
 1294 0486 FCEEE57A 		vcvt.u32.f32	s15, s11
 1295              		.loc 4 275 0
 1296 048a 33EE093A 		vadd.f32	s6, s6, s18
 1297              	.LVL137:
 1298              		.loc 4 258 0
 1299 048e F8EE677A 		vcvt.f32.u32	s15, s15
 1300 0492 75EEE75A 		vsub.f32	s11, s11, s15
 1301              	.LVL138:
 1302              		.loc 4 267 0
 1303 0496 FCEEC67A 		vcvt.u32.f32	s15, s12
 1304 049a F8EE677A 		vcvt.f32.u32	s15, s15
 1305 049e 36EE676A 		vsub.f32	s12, s12, s15
 1306              	.LVL139:
 1307              	.LBE380:
 1308              		.loc 4 118 0
 1309 04a2 79E6     		b	.L74
 1310              	.LVL140:
 1311              	.L59:
ARM GAS  C:\msys64\tmp\cckY1pdn.s 			page 24


 1312 04a4 C3ED852A 		vstr.32	s5, [r3, #532]
 1313              	.LVL141:
 1314              	.L75:
 1315              	.LBE382:
 1316              	.LBB383:
 1317              		.loc 4 287 0 discriminator 2
 1318 04a8 57F8042B 		ldr	r2, [r7], #4	@ float
 1319 04ac 46F8042B 		str	r2, [r6], #4	@ float
 1320              	.LVL142:
 1321              		.loc 4 286 0 discriminator 2
 1322 04b0 B645     		cmp	lr, r6
 1323 04b2 F9D1     		bne	.L75
 1324              	.LBE383:
 1325              		.loc 4 296 0
 1326 04b4 C3ED6C5A 		vstr.32	s11, [r3, #432]
 1327              		.loc 4 297 0
 1328 04b8 83ED6D6A 		vstr.32	s12, [r3, #436]
 1329              		.loc 4 305 0
 1330 04bc 83ED783A 		vstr.32	s6, [r3, #480]
 1331              		.loc 4 308 0
 1332 04c0 08B0     		add	sp, sp, #32
 1333              		.cfi_def_cfa_offset 88
 1334              		@ sp needed
 1335 04c2 BDEC0E8B 		vldm	sp!, {d8-d14}
 1336              		.cfi_restore 92
 1337              		.cfi_restore 93
 1338              		.cfi_restore 90
 1339              		.cfi_restore 91
 1340              		.cfi_restore 88
 1341              		.cfi_restore 89
 1342              		.cfi_restore 86
 1343              		.cfi_restore 87
 1344              		.cfi_restore 84
 1345              		.cfi_restore 85
 1346              		.cfi_restore 82
 1347              		.cfi_restore 83
 1348              		.cfi_restore 80
 1349              		.cfi_restore 81
 1350              		.cfi_def_cfa_offset 32
 1351              	.LVL143:
 1352 04c6 BDE8F087 		pop	{r4, r5, r6, r7, r8, r9, r10, pc}
 1353              	.L95:
 1354 04ca 00BF     		.align	2
 1355              	.L94:
 1356 04cc B8010000 		.word	.LANCHOR0+440
 1357              		.cfi_endproc
 1358              	.LFE293:
 1359              		.size	_hook_cycle, .-_hook_cycle
 1360              		.align	1
 1361              		.global	_hook_on
 1362              		.thumb
 1363              		.thumb_func
 1364              		.type	_hook_on, %function
 1365              	_hook_on:
 1366              	.LFB300:
 1367              		.cfi_startproc
 1368              		@ args = 0, pretend = 0, frame = 0
ARM GAS  C:\msys64\tmp\cckY1pdn.s 			page 25


 1369              		@ frame_needed = 0, uses_anonymous_args = 0
 1370              		@ link register save eliminated.
 1371 04d0 7047     		bx	lr
 1372              		.cfi_endproc
 1373              	.LFE300:
 1374              		.size	_hook_on, .-_hook_on
 1375              		.align	1
 1376              		.global	_hook_off
 1377              		.thumb
 1378              		.thumb_func
 1379              		.type	_hook_off, %function
 1380              	_hook_off:
 1381              	.LFB295:
 1382              		.loc 4 314 0
 1383              		.cfi_startproc
 1384              		@ args = 0, pretend = 0, frame = 0
 1385              		@ frame_needed = 0, uses_anonymous_args = 0
 1386              		@ link register save eliminated.
 1387              	.LVL144:
 1388 04d2 7047     		bx	lr
 1389              		.cfi_endproc
 1390              	.LFE295:
 1391              		.size	_hook_off, .-_hook_off
 1392              		.align	1
 1393              		.global	_hook_param
 1394              		.thumb
 1395              		.thumb_func
 1396              		.type	_hook_param, %function
 1397              	_hook_param:
 1398              	.LFB296:
 1399              		.loc 4 318 0
 1400              		.cfi_startproc
 1401              		@ args = 0, pretend = 0, frame = 0
 1402              		@ frame_needed = 0, uses_anonymous_args = 0
 1403              		@ link register save eliminated.
 1404              	.LVL145:
 1405              		.loc 4 318 0
 1406 04d4 07EE901A 		vmov	s15, r1	@ int
 1407              		.loc 4 335 0
 1408 04d8 0728     		cmp	r0, #7
 1409 04da 00F28F80 		bhi	.L98
 1410 04de DFE800F0 		tbb	[pc, r0]
 1411              	.L101:
 1412 04e2 04       		.byte	(.L100-.L101)/2
 1413 04e3 1F       		.byte	(.L102-.L101)/2
 1414 04e4 3A       		.byte	(.L103-.L101)/2
 1415 04e5 55       		.byte	(.L104-.L101)/2
 1416 04e6 5C       		.byte	(.L105-.L101)/2
 1417 04e7 8D       		.byte	(.L98-.L101)/2
 1418 04e8 7A       		.byte	(.L106-.L101)/2
 1419 04e9 84       		.byte	(.L107-.L101)/2
 1420              		.p2align 1
 1421              	.L100:
 1422              		.loc 4 342 0
 1423 04ea F8EEE77A 		vcvt.f32.s32	s15, s15
 1424 04ee 9FED447A 		vldr.32	s14, .L131
 1425 04f2 67EE877A 		vmul.f32	s15, s15, s14
ARM GAS  C:\msys64\tmp\cckY1pdn.s 			page 26


 1426              	.LVL146:
 1427              	.LBB384:
 1428              	.LBB385:
 1429              	.LBB386:
 1430              	.LBB387:
 1431              		.loc 2 193 0
 1432 04f6 F5EEC07A 		vcmpe.f32	s15, #0
 1433 04fa F1EE10FA 		vmrs	APSR_nzcv, FPSCR
 1434 04fe 09DB     		blt	.L128
 1435              	.LVL147:
 1436              	.LBE387:
 1437              	.LBE386:
 1438              	.LBB389:
 1439              	.LBB390:
 1440 0500 B7EE007A 		vmov.f32	s14, #1.0e+0
 1441              	.LBE390:
 1442              	.LBE389:
 1443              	.LBB391:
 1444              	.LBB388:
 1445 0504 F4EEC77A 		vcmpe.f32	s15, s14
 1446 0508 F1EE10FA 		vmrs	APSR_nzcv, FPSCR
 1447 050c A8BF     		it	ge
 1448 050e F0EE477A 		vmovge.f32	s15, s14
 1449              	.LVL148:
 1450 0512 01E0     		b	.L108
 1451              	.LVL149:
 1452              	.L128:
 1453 0514 DFED3B7A 		vldr.32	s15, .L131+4
 1454              	.LVL150:
 1455              	.L108:
 1456              	.LBE388:
 1457              	.LBE391:
 1458              	.LBE385:
 1459              	.LBE384:
 1460              		.loc 4 342 0
 1461 0518 3B4B     		ldr	r3, .L131+8
 1462 051a C3ED797A 		vstr.32	s15, [r3, #484]
 1463              		.loc 4 343 0
 1464 051e 7047     		bx	lr
 1465              	.L102:
 1466              		.loc 4 351 0
 1467 0520 F8EEE77A 		vcvt.f32.s32	s15, s15
 1468 0524 9FED367A 		vldr.32	s14, .L131
 1469 0528 67EE877A 		vmul.f32	s15, s15, s14
 1470              	.LVL151:
 1471              	.LBB392:
 1472              	.LBB393:
 1473              	.LBB394:
 1474              	.LBB395:
 1475              		.loc 2 193 0
 1476 052c F5EEC07A 		vcmpe.f32	s15, #0
 1477 0530 F1EE10FA 		vmrs	APSR_nzcv, FPSCR
 1478 0534 09DB     		blt	.L129
 1479              	.LVL152:
 1480              	.LBE395:
 1481              	.LBE394:
 1482              	.LBB397:
ARM GAS  C:\msys64\tmp\cckY1pdn.s 			page 27


 1483              	.LBB398:
 1484 0536 B7EE007A 		vmov.f32	s14, #1.0e+0
 1485              	.LBE398:
 1486              	.LBE397:
 1487              	.LBB399:
 1488              	.LBB396:
 1489 053a F4EEC77A 		vcmpe.f32	s15, s14
 1490 053e F1EE10FA 		vmrs	APSR_nzcv, FPSCR
 1491 0542 A8BF     		it	ge
 1492 0544 F0EE477A 		vmovge.f32	s15, s14
 1493              	.LVL153:
 1494 0548 01E0     		b	.L110
 1495              	.LVL154:
 1496              	.L129:
 1497 054a DFED2E7A 		vldr.32	s15, .L131+4
 1498              	.LVL155:
 1499              	.L110:
 1500              	.LBE396:
 1501              	.LBE399:
 1502              	.LBE393:
 1503              	.LBE392:
 1504              		.loc 4 351 0
 1505 054e 2E4B     		ldr	r3, .L131+8
 1506 0550 C3ED7A7A 		vstr.32	s15, [r3, #488]
 1507              		.loc 4 352 0
 1508 0554 7047     		bx	lr
 1509              	.L103:
 1510              		.loc 4 360 0
 1511 0556 F8EEE77A 		vcvt.f32.s32	s15, s15
 1512 055a 9FED297A 		vldr.32	s14, .L131
 1513 055e 67EE877A 		vmul.f32	s15, s15, s14
 1514              	.LVL156:
 1515              	.LBB400:
 1516              	.LBB401:
 1517              	.LBB402:
 1518              	.LBB403:
 1519              		.loc 2 193 0
 1520 0562 F5EEC07A 		vcmpe.f32	s15, #0
 1521 0566 F1EE10FA 		vmrs	APSR_nzcv, FPSCR
 1522 056a 09DB     		blt	.L130
 1523              	.LVL157:
 1524              	.LBE403:
 1525              	.LBE402:
 1526              	.LBB405:
 1527              	.LBB406:
 1528 056c B7EE007A 		vmov.f32	s14, #1.0e+0
 1529              	.LBE406:
 1530              	.LBE405:
 1531              	.LBB407:
 1532              	.LBB404:
 1533 0570 F4EEC77A 		vcmpe.f32	s15, s14
 1534 0574 F1EE10FA 		vmrs	APSR_nzcv, FPSCR
 1535 0578 A8BF     		it	ge
 1536 057a F0EE477A 		vmovge.f32	s15, s14
 1537              	.LVL158:
 1538 057e 01E0     		b	.L112
 1539              	.LVL159:
ARM GAS  C:\msys64\tmp\cckY1pdn.s 			page 28


 1540              	.L130:
 1541 0580 DFED207A 		vldr.32	s15, .L131+4
 1542              	.LVL160:
 1543              	.L112:
 1544              	.LBE404:
 1545              	.LBE407:
 1546              	.LBE401:
 1547              	.LBE400:
 1548              		.loc 4 360 0
 1549 0584 204B     		ldr	r3, .L131+8
 1550 0586 C3ED7B7A 		vstr.32	s15, [r3, #492]
 1551              		.loc 4 361 0
 1552 058a 7047     		bx	lr
 1553              	.L104:
 1554              		.loc 4 369 0
 1555 058c 1E4A     		ldr	r2, .L131+8
 1556 058e 02EB8103 		add	r3, r2, r1, lsl #2
 1557 0592 1B68     		ldr	r3, [r3]	@ float
 1558 0594 C2F8F031 		str	r3, [r2, #496]	@ float
 1559              		.loc 4 370 0
 1560 0598 7047     		bx	lr
 1561              	.L105:
 1562              		.loc 4 378 0
 1563 059a 4B1E     		subs	r3, r1, #1
 1564 059c 032B     		cmp	r3, #3
 1565 059e 2DD8     		bhi	.L98
 1566 05a0 DFE803F0 		tbb	[pc, r3]
 1567              	.L115:
 1568 05a4 02       		.byte	(.L114-.L115)/2
 1569 05a5 08       		.byte	(.L116-.L115)/2
 1570 05a6 0E       		.byte	(.L117-.L115)/2
 1571 05a7 14       		.byte	(.L118-.L115)/2
 1572              		.p2align 1
 1573              	.L114:
 1574              		.loc 4 379 0
 1575 05a8 174B     		ldr	r3, .L131+8
 1576 05aa 4FF08042 		mov	r2, #1073741824
 1577 05ae C3F8FC21 		str	r2, [r3, #508]	@ float
 1578 05b2 7047     		bx	lr
 1579              	.L116:
 1580              		.loc 4 380 0
 1581 05b4 144B     		ldr	r3, .L131+8
 1582 05b6 4FF07F52 		mov	r2, #1069547520
 1583 05ba C3F8FC21 		str	r2, [r3, #508]	@ float
 1584 05be 7047     		bx	lr
 1585              	.L117:
 1586              		.loc 4 381 0
 1587 05c0 114B     		ldr	r3, .L131+8
 1588 05c2 4FF07D52 		mov	r2, #1061158912
 1589 05c6 C3F8FC21 		str	r2, [r3, #508]	@ float
 1590 05ca 7047     		bx	lr
 1591              	.L118:
 1592              		.loc 4 382 0
 1593 05cc 0E4B     		ldr	r3, .L131+8
 1594 05ce 0F4A     		ldr	r2, .L131+12
 1595 05d0 C3F8FC21 		str	r2, [r3, #508]	@ float
 1596 05d4 7047     		bx	lr
ARM GAS  C:\msys64\tmp\cckY1pdn.s 			page 29


 1597              	.L106:
 1598              		.loc 4 394 0
 1599 05d6 F8EEE77A 		vcvt.f32.s32	s15, s15
 1600 05da 9FED0D7A 		vldr.32	s14, .L131+16
 1601 05de 0A4B     		ldr	r3, .L131+8
 1602 05e0 67EE877A 		vmul.f32	s15, s15, s14
 1603 05e4 C3ED7D7A 		vstr.32	s15, [r3, #500]
 1604 05e8 7047     		bx	lr
 1605              	.L107:
 1606              		.loc 4 402 0
 1607 05ea F8EEE77A 		vcvt.f32.s32	s15, s15
 1608 05ee 9FED087A 		vldr.32	s14, .L131+16
 1609 05f2 054B     		ldr	r3, .L131+8
 1610 05f4 67EE877A 		vmul.f32	s15, s15, s14
 1611 05f8 C3ED7E7A 		vstr.32	s15, [r3, #504]
 1612              	.L98:
 1613 05fc 7047     		bx	lr
 1614              	.L132:
 1615 05fe 00BF     		.align	2
 1616              	.L131:
 1617 0600 0AD7233C 		.word	1008981770
 1618 0604 00000000 		.word	0
 1619 0608 00000000 		.word	.LANCHOR0
 1620 060c 9A99993F 		.word	1067030938
 1621 0610 0820803A 		.word	981475336
 1622              		.cfi_endproc
 1623              	.LFE296:
 1624              		.size	_hook_param, .-_hook_param
 1625              		.section	.text.startup,"ax",%progbits
 1626              		.align	1
 1627              		.thumb
 1628              		.thumb_func
 1629              		.type	_GLOBAL__sub_I__hook_init, %function
 1630              	_GLOBAL__sub_I__hook_init:
 1631              	.LFB298:
 1632              		.loc 4 408 0
 1633              		.cfi_startproc
 1634              		@ args = 0, pretend = 0, frame = 0
 1635              		@ frame_needed = 0, uses_anonymous_args = 0
 1636              	.LVL161:
 1637 0000 08B5     		push	{r3, lr}
 1638              		.cfi_def_cfa_offset 8
 1639              		.cfi_offset 3, -8
 1640              		.cfi_offset 14, -4
 1641              	.LBB408:
 1642              	.LBB409:
 1643              		.loc 4 11 0
 1644 0002 0248     		ldr	r0, .L134
 1645 0004 FFF7FEFF 		bl	_ZN7UberSawC1Ev
 1646              	.LVL162:
 1647 0008 08BD     		pop	{r3, pc}
 1648              	.L135:
 1649 000a 00BF     		.align	2
 1650              	.L134:
 1651 000c 94010000 		.word	.LANCHOR0+404
 1652              	.LBE409:
 1653              	.LBE408:
ARM GAS  C:\msys64\tmp\cckY1pdn.s 			page 30


 1654              		.cfi_endproc
 1655              	.LFE298:
 1656              		.size	_GLOBAL__sub_I__hook_init, .-_GLOBAL__sub_I__hook_init
 1657              		.section	.init_array,"aw",%init_array
 1658              		.align	2
 1659 0000 00000000 		.word	_GLOBAL__sub_I__hook_init(target1)
 1660              		.bss
 1661              		.align	2
 1662              		.set	.LANCHOR0,. + 0
 1663              		.type	_ZL10detune_lut, %object
 1664              		.size	_ZL10detune_lut, 404
 1665              	_ZL10detune_lut:
 1666 0000 00000000 		.space	404
 1666      00000000 
 1666      00000000 
 1666      00000000 
 1666      00000000 
 1667              		.type	_ZL7ubersaw, %object
 1668              		.size	_ZL7ubersaw, 136
 1669              	_ZL7ubersaw:
 1670 0194 00000000 		.space	136
 1670      00000000 
 1670      00000000 
 1670      00000000 
 1670      00000000 
 1671              		.text
 1672              	.Letext0:
 1673              		.file 6 "c:\\msys64\\home\\logue-sdk\\tools\\gcc\\gcc-arm-none-eabi-5_4-2016q3\\arm-none-eabi\\inc
 1674              		.file 7 "c:\\msys64\\home\\logue-sdk\\tools\\gcc\\gcc-arm-none-eabi-5_4-2016q3\\arm-none-eabi\\inc
 1675              		.file 8 "c:\\msys64\\home\\logue-sdk\\platform\\ext\\cmsis\\cmsis\\include\\arm_math.h"
 1676              		.file 9 "C:/msys64/home/logue-sdk/platform/nutekt-digital/inc/userosc.h"
 1677              		.file 10 "C:/msys64/home/logue-sdk/platform/nutekt-digital/inc/utils/int_math.h"
 1678              		.file 11 "C:/msys64/home/logue-sdk/platform/nutekt-digital/inc/userprg.h"